

Microchip MPLAB XC8 Assembler V3.00 build 20241204225717 
                                                                                               Wed Jun 18 20:01:10 2025

Microchip MPLAB XC8 C Compiler v3.00 (Free license) build 20241204225717 Og1 
     1                           	processor	16F877A
     2                           	pagewidth 120
     3                           	opt	flic
     4                           	psect	idataCOMMON,global,class=CODE,space=0,delta=2,noexec
     5                           	psect	idataBANK0,global,class=CODE,space=0,delta=2,noexec
     6                           	psect	idataBANK1,global,class=CODE,space=0,delta=2,noexec
     7                           	psect	strings,global,class=STRING,space=0,delta=2,noexec
     8                           	psect	stringtext,global,reloc=256,class=STRCODE,space=0,delta=2,noexec
     9                           	psect	cinit,global,class=CODE,space=0,merge=1,delta=2
    10                           	psect	dataCOMMON,global,class=COMMON,space=1,delta=1,noexec
    11                           	psect	bssBANK0,global,class=BANK0,space=1,delta=1,noexec
    12                           	psect	dataBANK0,global,class=BANK0,space=1,delta=1,noexec
    13                           	psect	bssBANK1,global,class=BANK1,space=1,delta=1,noexec
    14                           	psect	dataBANK1,global,class=BANK1,space=1,delta=1,noexec
    15                           	psect	inittext,global,class=CODE,space=0,delta=2
    16                           	psect	clrtext,global,class=CODE,space=0,delta=2
    17                           	psect	cstackBANK1,global,class=BANK1,space=1,delta=1,noexec
    18                           	psect	cstackCOMMON,global,class=COMMON,space=1,delta=1,noexec
    19                           	psect	cstackBANK0,global,class=BANK0,space=1,delta=1,noexec
    20                           	psect	maintext,global,class=CODE,space=0,split=1,delta=2
    21                           	psect	text1,local,class=CODE,space=0,merge=1,delta=2
    22                           	psect	text2,local,class=CODE,space=0,merge=1,delta=2
    23                           	psect	text3,local,class=CODE,space=0,merge=1,delta=2
    24                           	psect	text4,local,class=CODE,space=0,merge=1,delta=2
    25                           	psect	text5,local,class=CODE,space=0,merge=1,delta=2
    26                           	psect	text6,local,class=CODE,space=0,merge=1,delta=2
    27                           	psect	text7,local,class=CODE,space=0,merge=1,delta=2,group=1
    28                           	psect	text8,local,class=CODE,space=0,merge=1,delta=2,group=1
    29                           	psect	text9,local,class=CODE,space=0,merge=1,delta=2,group=1
    30                           	psect	text10,local,class=CODE,space=0,merge=1,delta=2,group=1
    31                           	psect	text11,local,class=CODE,space=0,merge=1,delta=2,group=1
    32                           	psect	text12,local,class=CODE,space=0,merge=1,delta=2,group=1
    33                           	psect	text13,local,class=CODE,space=0,merge=1,delta=2,group=1
    34                           	psect	text14,local,class=CODE,space=0,merge=1,delta=2,group=1
    35                           	psect	text15,local,class=CODE,space=0,merge=1,delta=2,group=1
    36                           	psect	text16,local,class=CODE,space=0,merge=1,delta=2,group=1
    37                           	psect	text17,local,class=CODE,space=0,merge=1,delta=2
    38                           	psect	text18,local,class=CODE,space=0,merge=1,delta=2
    39                           	psect	text19,local,class=CODE,space=0,merge=1,delta=2
    40                           	psect	text20,local,class=CODE,space=0,merge=1,delta=2
    41                           	psect	text21,local,class=CODE,space=0,merge=1,delta=2
    42                           	psect	text22,local,class=CODE,space=0,merge=1,delta=2
    43                           	psect	text23,local,class=CODE,space=0,merge=1,delta=2
    44                           	psect	text24,local,class=CODE,space=0,merge=1,delta=2
    45                           	psect	text25,local,class=CODE,space=0,merge=1,delta=2
    46                           	psect	text26,local,class=CODE,space=0,merge=1,delta=2
    47                           	psect	text27,local,class=CODE,space=0,merge=1,delta=2
    48                           	psect	intentry,global,class=CODE,space=0,delta=2
    49                           	psect	config,global,abs,ovrld,class=CONFIG,space=4,delta=2,noexec
    50                           	dabs	1,0x7E,2
    51     0000                     
    52                           ; Generated 12/10/2023 GMT
    53                           ; 
    54                           ; Copyright © 2023, Microchip Technology Inc. and its subsidiaries ("Microchip")
    55                           ; All rights reserved.
    56                           ; 
    57                           ; This software is developed by Microchip Technology Inc. and its subsidiaries ("Microch
      +                          ip").
    58                           ; 
    59                           ; Redistribution and use in source and binary forms, with or without modification, are
    60                           ; permitted provided that the following conditions are met:
    61                           ; 
    62                           ;     1. Redistributions of source code must retain the above copyright notice, this lis
      +                          t of
    63                           ;        conditions and the following disclaimer.
    64                           ; 
    65                           ;     2. Redistributions in binary form must reproduce the above copyright notice, this 
      +                          list
    66                           ;        of conditions and the following disclaimer in the documentation and/or other
    67                           ;        materials provided with the distribution. Publication is not required when
    68                           ;        this file is used in an embedded application.
    69                           ; 
    70                           ;     3. Microchip's name may not be used to endorse or promote products derived from th
      +                          is
    71                           ;        software without specific prior written permission.
    72                           ; 
    73                           ; THIS SOFTWARE IS PROVIDED BY MICROCHIP "AS IS" AND ANY EXPRESS OR IMPLIED WARRANTIES,
    74                           ; INCLUDING, BUT NOT LIMITED TO, THE IMPLIED WARRANTIES OF MERCHANTABILITY AND FITNESS F
      +                          OR
    75                           ; PURPOSE ARE DISCLAIMED.  IN NO EVENT SHALL MICROCHIP BE LIABLE FOR ANY DIRECT, INDIREC
      +                          T,
    76                           ; INCIDENTAL, SPECIAL, EXEMPLARY, OR CONSEQUENTIAL DAMAGES (INCLUDING BUT NOT LIMITED TO
    77                           ; PROCUREMENT OF SUBSTITUTE GOODS OR SERVICES; LOSS OF USE, DATA OR PROFITS; OR BUSINESS
    78                           ; INTERRUPTION) HOWSOEVER CAUSED AND ON ANY THEORY OF LIABILITY, WHETHER IN CONTRACT, ST
      +                          RICT
    79                           ; LIABILITY, OR TORT (INCLUDING NEGLIGENCE OR OTHERWISE) ARISING IN ANY WAY OUT OF THE U
      +                          SE OF
    80                           ; THIS SOFTWARE, EVEN IF ADVISED OF THE POSSIBILITY OF SUCH DAMAGE.
    81                           ; 
    82                           ; 
    83                           ; Code-generator required, PIC16F877A Definitions
    84                           ; 
    85                           ; SFR Addresses
    86     0004                     fsr             equ	4
    87     0004                     fsr0            equ	4
    88     0000                     indf            equ	0
    89     0000                     indf0           equ	0
    90     0002                     pc              equ	2
    91     0002                     pcl             equ	2
    92     000A                     pclath          equ	10
    93     0003                     status          equ	3
    94     0000                     INDF            equ	0	;# 
    95     0001                     TMR0            equ	1	;# 
    96     0002                     PCL             equ	2	;# 
    97     0003                     STATUS          equ	3	;# 
    98     0004                     FSR             equ	4	;# 
    99     0005                     PORTA           equ	5	;# 
   100     0006                     PORTB           equ	6	;# 
   101     0007                     PORTC           equ	7	;# 
   102     0008                     PORTD           equ	8	;# 
   103     0009                     PORTE           equ	9	;# 
   104     000A                     PCLATH          equ	10	;# 
   105     000B                     INTCON          equ	11	;# 
   106     000C                     PIR1            equ	12	;# 
   107     000D                     PIR2            equ	13	;# 
   108     000E                     TMR1            equ	14	;# 
   109     000E                     TMR1L           equ	14	;# 
   110     000F                     TMR1H           equ	15	;# 
   111     0010                     T1CON           equ	16	;# 
   112     0011                     TMR2            equ	17	;# 
   113     0012                     T2CON           equ	18	;# 
   114     0013                     SSPBUF          equ	19	;# 
   115     0014                     SSPCON          equ	20	;# 
   116     0015                     CCPR1           equ	21	;# 
   117     0015                     CCPR1L          equ	21	;# 
   118     0016                     CCPR1H          equ	22	;# 
   119     0017                     CCP1CON         equ	23	;# 
   120     0018                     RCSTA           equ	24	;# 
   121     0019                     TXREG           equ	25	;# 
   122     001A                     RCREG           equ	26	;# 
   123     001B                     CCPR2           equ	27	;# 
   124     001B                     CCPR2L          equ	27	;# 
   125     001C                     CCPR2H          equ	28	;# 
   126     001D                     CCP2CON         equ	29	;# 
   127     001E                     ADRESH          equ	30	;# 
   128     001F                     ADCON0          equ	31	;# 
   129     0081                     OPTION_REG      equ	129	;# 
   130     0085                     TRISA           equ	133	;# 
   131     0086                     TRISB           equ	134	;# 
   132     0087                     TRISC           equ	135	;# 
   133     0088                     TRISD           equ	136	;# 
   134     0089                     TRISE           equ	137	;# 
   135     008C                     PIE1            equ	140	;# 
   136     008D                     PIE2            equ	141	;# 
   137     008E                     PCON            equ	142	;# 
   138     0091                     SSPCON2         equ	145	;# 
   139     0092                     PR2             equ	146	;# 
   140     0093                     SSPADD          equ	147	;# 
   141     0094                     SSPSTAT         equ	148	;# 
   142     0098                     TXSTA           equ	152	;# 
   143     0099                     SPBRG           equ	153	;# 
   144     009C                     CMCON           equ	156	;# 
   145     009D                     CVRCON          equ	157	;# 
   146     009E                     ADRESL          equ	158	;# 
   147     009F                     ADCON1          equ	159	;# 
   148     010C                     EEDATA          equ	268	;# 
   149     010D                     EEADR           equ	269	;# 
   150     010E                     EEDATH          equ	270	;# 
   151     010F                     EEADRH          equ	271	;# 
   152     018C                     EECON1          equ	396	;# 
   153     018D                     EECON2          equ	397	;# 
   154     0000                     INDF            equ	0	;# 
   155     0001                     TMR0            equ	1	;# 
   156     0002                     PCL             equ	2	;# 
   157     0003                     STATUS          equ	3	;# 
   158     0004                     FSR             equ	4	;# 
   159     0005                     PORTA           equ	5	;# 
   160     0006                     PORTB           equ	6	;# 
   161     0007                     PORTC           equ	7	;# 
   162     0008                     PORTD           equ	8	;# 
   163     0009                     PORTE           equ	9	;# 
   164     000A                     PCLATH          equ	10	;# 
   165     000B                     INTCON          equ	11	;# 
   166     000C                     PIR1            equ	12	;# 
   167     000D                     PIR2            equ	13	;# 
   168     000E                     TMR1            equ	14	;# 
   169     000E                     TMR1L           equ	14	;# 
   170     000F                     TMR1H           equ	15	;# 
   171     0010                     T1CON           equ	16	;# 
   172     0011                     TMR2            equ	17	;# 
   173     0012                     T2CON           equ	18	;# 
   174     0013                     SSPBUF          equ	19	;# 
   175     0014                     SSPCON          equ	20	;# 
   176     0015                     CCPR1           equ	21	;# 
   177     0015                     CCPR1L          equ	21	;# 
   178     0016                     CCPR1H          equ	22	;# 
   179     0017                     CCP1CON         equ	23	;# 
   180     0018                     RCSTA           equ	24	;# 
   181     0019                     TXREG           equ	25	;# 
   182     001A                     RCREG           equ	26	;# 
   183     001B                     CCPR2           equ	27	;# 
   184     001B                     CCPR2L          equ	27	;# 
   185     001C                     CCPR2H          equ	28	;# 
   186     001D                     CCP2CON         equ	29	;# 
   187     001E                     ADRESH          equ	30	;# 
   188     001F                     ADCON0          equ	31	;# 
   189     0081                     OPTION_REG      equ	129	;# 
   190     0085                     TRISA           equ	133	;# 
   191     0086                     TRISB           equ	134	;# 
   192     0087                     TRISC           equ	135	;# 
   193     0088                     TRISD           equ	136	;# 
   194     0089                     TRISE           equ	137	;# 
   195     008C                     PIE1            equ	140	;# 
   196     008D                     PIE2            equ	141	;# 
   197     008E                     PCON            equ	142	;# 
   198     0091                     SSPCON2         equ	145	;# 
   199     0092                     PR2             equ	146	;# 
   200     0093                     SSPADD          equ	147	;# 
   201     0094                     SSPSTAT         equ	148	;# 
   202     0098                     TXSTA           equ	152	;# 
   203     0099                     SPBRG           equ	153	;# 
   204     009C                     CMCON           equ	156	;# 
   205     009D                     CVRCON          equ	157	;# 
   206     009E                     ADRESL          equ	158	;# 
   207     009F                     ADCON1          equ	159	;# 
   208     010C                     EEDATA          equ	268	;# 
   209     010D                     EEADR           equ	269	;# 
   210     010E                     EEDATH          equ	270	;# 
   211     010F                     EEADRH          equ	271	;# 
   212     018C                     EECON1          equ	396	;# 
   213     018D                     EECON2          equ	397	;# 
   214     0000                     INDF            equ	0	;# 
   215     0001                     TMR0            equ	1	;# 
   216     0002                     PCL             equ	2	;# 
   217     0003                     STATUS          equ	3	;# 
   218     0004                     FSR             equ	4	;# 
   219     0005                     PORTA           equ	5	;# 
   220     0006                     PORTB           equ	6	;# 
   221     0007                     PORTC           equ	7	;# 
   222     0008                     PORTD           equ	8	;# 
   223     0009                     PORTE           equ	9	;# 
   224     000A                     PCLATH          equ	10	;# 
   225     000B                     INTCON          equ	11	;# 
   226     000C                     PIR1            equ	12	;# 
   227     000D                     PIR2            equ	13	;# 
   228     000E                     TMR1            equ	14	;# 
   229     000E                     TMR1L           equ	14	;# 
   230     000F                     TMR1H           equ	15	;# 
   231     0010                     T1CON           equ	16	;# 
   232     0011                     TMR2            equ	17	;# 
   233     0012                     T2CON           equ	18	;# 
   234     0013                     SSPBUF          equ	19	;# 
   235     0014                     SSPCON          equ	20	;# 
   236     0015                     CCPR1           equ	21	;# 
   237     0015                     CCPR1L          equ	21	;# 
   238     0016                     CCPR1H          equ	22	;# 
   239     0017                     CCP1CON         equ	23	;# 
   240     0018                     RCSTA           equ	24	;# 
   241     0019                     TXREG           equ	25	;# 
   242     001A                     RCREG           equ	26	;# 
   243     001B                     CCPR2           equ	27	;# 
   244     001B                     CCPR2L          equ	27	;# 
   245     001C                     CCPR2H          equ	28	;# 
   246     001D                     CCP2CON         equ	29	;# 
   247     001E                     ADRESH          equ	30	;# 
   248     001F                     ADCON0          equ	31	;# 
   249     0081                     OPTION_REG      equ	129	;# 
   250     0085                     TRISA           equ	133	;# 
   251     0086                     TRISB           equ	134	;# 
   252     0087                     TRISC           equ	135	;# 
   253     0088                     TRISD           equ	136	;# 
   254     0089                     TRISE           equ	137	;# 
   255     008C                     PIE1            equ	140	;# 
   256     008D                     PIE2            equ	141	;# 
   257     008E                     PCON            equ	142	;# 
   258     0091                     SSPCON2         equ	145	;# 
   259     0092                     PR2             equ	146	;# 
   260     0093                     SSPADD          equ	147	;# 
   261     0094                     SSPSTAT         equ	148	;# 
   262     0098                     TXSTA           equ	152	;# 
   263     0099                     SPBRG           equ	153	;# 
   264     009C                     CMCON           equ	156	;# 
   265     009D                     CVRCON          equ	157	;# 
   266     009E                     ADRESL          equ	158	;# 
   267     009F                     ADCON1          equ	159	;# 
   268     010C                     EEDATA          equ	268	;# 
   269     010D                     EEADR           equ	269	;# 
   270     010E                     EEDATH          equ	270	;# 
   271     010F                     EEADRH          equ	271	;# 
   272     018C                     EECON1          equ	396	;# 
   273     018D                     EECON2          equ	397	;# 
   274     0000                     INDF            equ	0	;# 
   275     0001                     TMR0            equ	1	;# 
   276     0002                     PCL             equ	2	;# 
   277     0003                     STATUS          equ	3	;# 
   278     0004                     FSR             equ	4	;# 
   279     0005                     PORTA           equ	5	;# 
   280     0006                     PORTB           equ	6	;# 
   281     0007                     PORTC           equ	7	;# 
   282     0008                     PORTD           equ	8	;# 
   283     0009                     PORTE           equ	9	;# 
   284     000A                     PCLATH          equ	10	;# 
   285     000B                     INTCON          equ	11	;# 
   286     000C                     PIR1            equ	12	;# 
   287     000D                     PIR2            equ	13	;# 
   288     000E                     TMR1            equ	14	;# 
   289     000E                     TMR1L           equ	14	;# 
   290     000F                     TMR1H           equ	15	;# 
   291     0010                     T1CON           equ	16	;# 
   292     0011                     TMR2            equ	17	;# 
   293     0012                     T2CON           equ	18	;# 
   294     0013                     SSPBUF          equ	19	;# 
   295     0014                     SSPCON          equ	20	;# 
   296     0015                     CCPR1           equ	21	;# 
   297     0015                     CCPR1L          equ	21	;# 
   298     0016                     CCPR1H          equ	22	;# 
   299     0017                     CCP1CON         equ	23	;# 
   300     0018                     RCSTA           equ	24	;# 
   301     0019                     TXREG           equ	25	;# 
   302     001A                     RCREG           equ	26	;# 
   303     001B                     CCPR2           equ	27	;# 
   304     001B                     CCPR2L          equ	27	;# 
   305     001C                     CCPR2H          equ	28	;# 
   306     001D                     CCP2CON         equ	29	;# 
   307     001E                     ADRESH          equ	30	;# 
   308     001F                     ADCON0          equ	31	;# 
   309     0081                     OPTION_REG      equ	129	;# 
   310     0085                     TRISA           equ	133	;# 
   311     0086                     TRISB           equ	134	;# 
   312     0087                     TRISC           equ	135	;# 
   313     0088                     TRISD           equ	136	;# 
   314     0089                     TRISE           equ	137	;# 
   315     008C                     PIE1            equ	140	;# 
   316     008D                     PIE2            equ	141	;# 
   317     008E                     PCON            equ	142	;# 
   318     0091                     SSPCON2         equ	145	;# 
   319     0092                     PR2             equ	146	;# 
   320     0093                     SSPADD          equ	147	;# 
   321     0094                     SSPSTAT         equ	148	;# 
   322     0098                     TXSTA           equ	152	;# 
   323     0099                     SPBRG           equ	153	;# 
   324     009C                     CMCON           equ	156	;# 
   325     009D                     CVRCON          equ	157	;# 
   326     009E                     ADRESL          equ	158	;# 
   327     009F                     ADCON1          equ	159	;# 
   328     010C                     EEDATA          equ	268	;# 
   329     010D                     EEADR           equ	269	;# 
   330     010E                     EEDATH          equ	270	;# 
   331     010F                     EEADRH          equ	271	;# 
   332     018C                     EECON1          equ	396	;# 
   333     018D                     EECON2          equ	397	;# 
   334     0000                     INDF            equ	0	;# 
   335     0001                     TMR0            equ	1	;# 
   336     0002                     PCL             equ	2	;# 
   337     0003                     STATUS          equ	3	;# 
   338     0004                     FSR             equ	4	;# 
   339     0005                     PORTA           equ	5	;# 
   340     0006                     PORTB           equ	6	;# 
   341     0007                     PORTC           equ	7	;# 
   342     0008                     PORTD           equ	8	;# 
   343     0009                     PORTE           equ	9	;# 
   344     000A                     PCLATH          equ	10	;# 
   345     000B                     INTCON          equ	11	;# 
   346     000C                     PIR1            equ	12	;# 
   347     000D                     PIR2            equ	13	;# 
   348     000E                     TMR1            equ	14	;# 
   349     000E                     TMR1L           equ	14	;# 
   350     000F                     TMR1H           equ	15	;# 
   351     0010                     T1CON           equ	16	;# 
   352     0011                     TMR2            equ	17	;# 
   353     0012                     T2CON           equ	18	;# 
   354     0013                     SSPBUF          equ	19	;# 
   355     0014                     SSPCON          equ	20	;# 
   356     0015                     CCPR1           equ	21	;# 
   357     0015                     CCPR1L          equ	21	;# 
   358     0016                     CCPR1H          equ	22	;# 
   359     0017                     CCP1CON         equ	23	;# 
   360     0018                     RCSTA           equ	24	;# 
   361     0019                     TXREG           equ	25	;# 
   362     001A                     RCREG           equ	26	;# 
   363     001B                     CCPR2           equ	27	;# 
   364     001B                     CCPR2L          equ	27	;# 
   365     001C                     CCPR2H          equ	28	;# 
   366     001D                     CCP2CON         equ	29	;# 
   367     001E                     ADRESH          equ	30	;# 
   368     001F                     ADCON0          equ	31	;# 
   369     0081                     OPTION_REG      equ	129	;# 
   370     0085                     TRISA           equ	133	;# 
   371     0086                     TRISB           equ	134	;# 
   372     0087                     TRISC           equ	135	;# 
   373     0088                     TRISD           equ	136	;# 
   374     0089                     TRISE           equ	137	;# 
   375     008C                     PIE1            equ	140	;# 
   376     008D                     PIE2            equ	141	;# 
   377     008E                     PCON            equ	142	;# 
   378     0091                     SSPCON2         equ	145	;# 
   379     0092                     PR2             equ	146	;# 
   380     0093                     SSPADD          equ	147	;# 
   381     0094                     SSPSTAT         equ	148	;# 
   382     0098                     TXSTA           equ	152	;# 
   383     0099                     SPBRG           equ	153	;# 
   384     009C                     CMCON           equ	156	;# 
   385     009D                     CVRCON          equ	157	;# 
   386     009E                     ADRESL          equ	158	;# 
   387     009F                     ADCON1          equ	159	;# 
   388     010C                     EEDATA          equ	268	;# 
   389     010D                     EEADR           equ	269	;# 
   390     010E                     EEDATH          equ	270	;# 
   391     010F                     EEADRH          equ	271	;# 
   392     018C                     EECON1          equ	396	;# 
   393     018D                     EECON2          equ	397	;# 
   394     0000                     INDF            equ	0	;# 
   395     0001                     TMR0            equ	1	;# 
   396     0002                     PCL             equ	2	;# 
   397     0003                     STATUS          equ	3	;# 
   398     0004                     FSR             equ	4	;# 
   399     0005                     PORTA           equ	5	;# 
   400     0006                     PORTB           equ	6	;# 
   401     0007                     PORTC           equ	7	;# 
   402     0008                     PORTD           equ	8	;# 
   403     0009                     PORTE           equ	9	;# 
   404     000A                     PCLATH          equ	10	;# 
   405     000B                     INTCON          equ	11	;# 
   406     000C                     PIR1            equ	12	;# 
   407     000D                     PIR2            equ	13	;# 
   408     000E                     TMR1            equ	14	;# 
   409     000E                     TMR1L           equ	14	;# 
   410     000F                     TMR1H           equ	15	;# 
   411     0010                     T1CON           equ	16	;# 
   412     0011                     TMR2            equ	17	;# 
   413     0012                     T2CON           equ	18	;# 
   414     0013                     SSPBUF          equ	19	;# 
   415     0014                     SSPCON          equ	20	;# 
   416     0015                     CCPR1           equ	21	;# 
   417     0015                     CCPR1L          equ	21	;# 
   418     0016                     CCPR1H          equ	22	;# 
   419     0017                     CCP1CON         equ	23	;# 
   420     0018                     RCSTA           equ	24	;# 
   421     0019                     TXREG           equ	25	;# 
   422     001A                     RCREG           equ	26	;# 
   423     001B                     CCPR2           equ	27	;# 
   424     001B                     CCPR2L          equ	27	;# 
   425     001C                     CCPR2H          equ	28	;# 
   426     001D                     CCP2CON         equ	29	;# 
   427     001E                     ADRESH          equ	30	;# 
   428     001F                     ADCON0          equ	31	;# 
   429     0081                     OPTION_REG      equ	129	;# 
   430     0085                     TRISA           equ	133	;# 
   431     0086                     TRISB           equ	134	;# 
   432     0087                     TRISC           equ	135	;# 
   433     0088                     TRISD           equ	136	;# 
   434     0089                     TRISE           equ	137	;# 
   435     008C                     PIE1            equ	140	;# 
   436     008D                     PIE2            equ	141	;# 
   437     008E                     PCON            equ	142	;# 
   438     0091                     SSPCON2         equ	145	;# 
   439     0092                     PR2             equ	146	;# 
   440     0093                     SSPADD          equ	147	;# 
   441     0094                     SSPSTAT         equ	148	;# 
   442     0098                     TXSTA           equ	152	;# 
   443     0099                     SPBRG           equ	153	;# 
   444     009C                     CMCON           equ	156	;# 
   445     009D                     CVRCON          equ	157	;# 
   446     009E                     ADRESL          equ	158	;# 
   447     009F                     ADCON1          equ	159	;# 
   448     010C                     EEDATA          equ	268	;# 
   449     010D                     EEADR           equ	269	;# 
   450     010E                     EEDATH          equ	270	;# 
   451     010F                     EEADRH          equ	271	;# 
   452     018C                     EECON1          equ	396	;# 
   453     018D                     EECON2          equ	397	;# 
   454     0000                     INDF            equ	0	;# 
   455     0001                     TMR0            equ	1	;# 
   456     0002                     PCL             equ	2	;# 
   457     0003                     STATUS          equ	3	;# 
   458     0004                     FSR             equ	4	;# 
   459     0005                     PORTA           equ	5	;# 
   460     0006                     PORTB           equ	6	;# 
   461     0007                     PORTC           equ	7	;# 
   462     0008                     PORTD           equ	8	;# 
   463     0009                     PORTE           equ	9	;# 
   464     000A                     PCLATH          equ	10	;# 
   465     000B                     INTCON          equ	11	;# 
   466     000C                     PIR1            equ	12	;# 
   467     000D                     PIR2            equ	13	;# 
   468     000E                     TMR1            equ	14	;# 
   469     000E                     TMR1L           equ	14	;# 
   470     000F                     TMR1H           equ	15	;# 
   471     0010                     T1CON           equ	16	;# 
   472     0011                     TMR2            equ	17	;# 
   473     0012                     T2CON           equ	18	;# 
   474     0013                     SSPBUF          equ	19	;# 
   475     0014                     SSPCON          equ	20	;# 
   476     0015                     CCPR1           equ	21	;# 
   477     0015                     CCPR1L          equ	21	;# 
   478     0016                     CCPR1H          equ	22	;# 
   479     0017                     CCP1CON         equ	23	;# 
   480     0018                     RCSTA           equ	24	;# 
   481     0019                     TXREG           equ	25	;# 
   482     001A                     RCREG           equ	26	;# 
   483     001B                     CCPR2           equ	27	;# 
   484     001B                     CCPR2L          equ	27	;# 
   485     001C                     CCPR2H          equ	28	;# 
   486     001D                     CCP2CON         equ	29	;# 
   487     001E                     ADRESH          equ	30	;# 
   488     001F                     ADCON0          equ	31	;# 
   489     0081                     OPTION_REG      equ	129	;# 
   490     0085                     TRISA           equ	133	;# 
   491     0086                     TRISB           equ	134	;# 
   492     0087                     TRISC           equ	135	;# 
   493     0088                     TRISD           equ	136	;# 
   494     0089                     TRISE           equ	137	;# 
   495     008C                     PIE1            equ	140	;# 
   496     008D                     PIE2            equ	141	;# 
   497     008E                     PCON            equ	142	;# 
   498     0091                     SSPCON2         equ	145	;# 
   499     0092                     PR2             equ	146	;# 
   500     0093                     SSPADD          equ	147	;# 
   501     0094                     SSPSTAT         equ	148	;# 
   502     0098                     TXSTA           equ	152	;# 
   503     0099                     SPBRG           equ	153	;# 
   504     009C                     CMCON           equ	156	;# 
   505     009D                     CVRCON          equ	157	;# 
   506     009E                     ADRESL          equ	158	;# 
   507     009F                     ADCON1          equ	159	;# 
   508     010C                     EEDATA          equ	268	;# 
   509     010D                     EEADR           equ	269	;# 
   510     010E                     EEDATH          equ	270	;# 
   511     010F                     EEADRH          equ	271	;# 
   512     018C                     EECON1          equ	396	;# 
   513     018D                     EECON2          equ	397	;# 
   514                           
   515                           	psect	idataCOMMON
   516     1325                     __pidataCOMMON:
   517                           
   518                           ;initializer for read_digital_keypad@long_press
   519     1325  3401               	retlw	1
   520                           
   521                           ;initializer for read_digital_keypad@once
   522     1326  3401               	retlw	1
   523                           
   524                           ;initializer for _reset_flag
   525     1327  3411               	retlw	17
   526                           
   527                           	psect	idataBANK0
   528     07FF                     __pidataBANK0:
   529                           
   530                           ;initializer for _operational_mode
   531     07FF  3401               	retlw	1
   532                           
   533                           	psect	idataBANK1
   534     139A                     __pidataBANK1:
   535                           
   536                           ;initializer for _washing_program
   537     139A  345D               	retlw	low (STR_7| (0+32768))
   538     139B  3491               	retlw	high (STR_7| (0+32768))
   539     139C  3463               	retlw	low (STR_8| (0+32768))
   540     139D  3491               	retlw	high (STR_8| (0+32768))
   541     139E  34F4               	retlw	low (STR_9| (0+32768))
   542     139F  3490               	retlw	high (STR_9| (0+32768))
   543     13A0  3444               	retlw	low (STR_10| (0+32768))
   544     13A1  3491               	retlw	high (STR_10| (0+32768))
   545     13A2  34AA               	retlw	low (STR_11| (0+32768))
   546     13A3  3490               	retlw	high (STR_11| (0+32768))
   547     13A4  34B5               	retlw	low (STR_12| (0+32768))
   548     13A5  3490               	retlw	high (STR_12| (0+32768))
   549     13A6  342E               	retlw	low (STR_13| (0+32768))
   550     13A7  3491               	retlw	high (STR_13| (0+32768))
   551     13A8  34C0               	retlw	low (STR_14| (0+32768))
   552     13A9  3490               	retlw	high (STR_14| (0+32768))
   553     13AA  3408               	retlw	low (STR_15| (0+32768))
   554     13AB  3491               	retlw	high (STR_15| (0+32768))
   555     13AC  341C               	retlw	low (STR_16| (0+32768))
   556     13AD  3491               	retlw	high (STR_16| (0+32768))
   557     13AE  34FE               	retlw	low (STR_17| (0+32768))
   558     13AF  3490               	retlw	high (STR_17| (0+32768))
   559     13B0  349F               	retlw	low (STR_18| (0+32768))
   560     13B1  3490               	retlw	high (STR_18| (0+32768))
   561                           
   562                           ;initializer for _water_level
   563     13B2  3478               	retlw	low (STR_19| (0+32768))
   564     13B3  3491               	retlw	high (STR_19| (0+32768))
   565     13B4  347D               	retlw	low (STR_20| (0+32768))
   566     13B5  3491               	retlw	high (STR_20| (0+32768))
   567     13B6  343D               	retlw	low (STR_21| (0+32768))
   568     13B7  3491               	retlw	high (STR_21| (0+32768))
   569     13B8  3473               	retlw	low (STR_22| (0+32768))
   570     13B9  3491               	retlw	high (STR_22| (0+32768))
   571     13BA  3481               	retlw	low (STR_23| (0+32768))
   572     13BB  3491               	retlw	high (STR_23| (0+32768))
   573     0006                     _PORTB          set	6
   574     0008                     _PORTD          set	8
   575     0030                     _RB0            set	48
   576     0061                     _TMR2IF         set	97
   577     0049                     _RE1            set	73
   578     004A                     _RE2            set	74
   579     0092                     _TMR2ON         set	146
   580     003A                     _RC2            set	58
   581     0039                     _RC1            set	57
   582     005E                     _PEIE           set	94
   583     005F                     _GIE            set	95
   584     0086                     _TRISB          set	134
   585     0092                     _PR2            set	146
   586     0088                     _TRISD          set	136
   587     0461                     _TMR2IE         set	1121
   588     0449                     _TRISE1         set	1097
   589     044A                     _TRISE2         set	1098
   590     043A                     _TRISC2         set	1082
   591     0439                     _TRISC1         set	1081
   592                           
   593                           	psect	strings
   594     1185                     __pstrings:
   595     1185                     stringtab:
   596     1185                     __stringtab:
   597                           
   598                           ;	String table - string pointers are 2 bytes each
   599     1185  1BFF               	btfsc	btemp+1,7
   600     1186  298F               	ljmp	stringcode
   601     1187  1383               	bcf	3,7
   602     1188  187F               	btfsc	btemp+1,0
   603     1189  1783               	bsf	3,7
   604     118A  0800               	movf	0,w
   605     118B  0A84               	incf	4,f
   606     118C  1903               	skipnz
   607     118D  0AFF               	incf	btemp+1,f
   608     118E  0008               	return
   609     118F                     stringcode:
   610     118F  087F               	movf	btemp+1,w
   611     1190  397F               	andlw	127
   612     1191  008A               	movwf	10
   613     1192  0804               	movf	4,w
   614     1193  0A84               	incf	4,f
   615     1194  1903               	skipnz
   616     1195  0AFF               	incf	btemp+1,f
   617     1196  0082               	movwf	2
   618     1197                     __stringbase:
   619     1197                     __end_of__stringtab:
   620                           
   621                           	psect	stringtext
   622     1000                     __pstringtext:
   623     1000                     STR_41:
   624     1000  3450               	retlw	80	;'P'
   625     1001  3472               	retlw	114	;'r'
   626     1002  346F               	retlw	111	;'o'
   627     1003  3467               	retlw	103	;'g'
   628     1004  3472               	retlw	114	;'r'
   629     1005  3461               	retlw	97	;'a'
   630     1006  346D               	retlw	109	;'m'
   631     1007  3420               	retlw	32	;' '
   632     1008  3463               	retlw	99	;'c'
   633     1009  346F               	retlw	111	;'o'
   634     100A  346D               	retlw	109	;'m'
   635     100B  3470               	retlw	112	;'p'
   636     100C  346C               	retlw	108	;'l'
   637     100D  3465               	retlw	101	;'e'
   638     100E  3474               	retlw	116	;'t'
   639     100F  3465               	retlw	101	;'e'
   640     1010  3400               	retlw	0
   641     1011                     STR_25:
   642     1011  3477               	retlw	119	;'w'
   643     1012  3461               	retlw	97	;'a'
   644     1013  3473               	retlw	115	;'s'
   645     1014  3468               	retlw	104	;'h'
   646     1015  3469               	retlw	105	;'i'
   647     1016  346E               	retlw	110	;'n'
   648     1017  3467               	retlw	103	;'g'
   649     1018  345F               	retlw	95	;'_'
   650     1019  346D               	retlw	109	;'m'
   651     101A  3461               	retlw	97	;'a'
   652     101B  3463               	retlw	99	;'c'
   653     101C  3468               	retlw	104	;'h'
   654     101D  3469               	retlw	105	;'i'
   655     101E  346E               	retlw	110	;'n'
   656     101F  3465               	retlw	101	;'e'
   657     1020  3400               	retlw	0
   658     1021                     STR_26:
   659     1021  3477               	retlw	119	;'w'
   660     1022  3461               	retlw	97	;'a'
   661     1023  3473               	retlw	115	;'s'
   662     1024  3468               	retlw	104	;'h'
   663     1025  3469               	retlw	105	;'i'
   664     1026  346E               	retlw	110	;'n'
   665     1027  3467               	retlw	103	;'g'
   666     1028  3420               	retlw	32	;' '
   667     1029  3470               	retlw	112	;'p'
   668     102A  3472               	retlw	114	;'r'
   669     102B  346F               	retlw	111	;'o'
   670     102C  3467               	retlw	103	;'g'
   671     102D  3472               	retlw	114	;'r'
   672     102E  3461               	retlw	97	;'a'
   673     102F  346D               	retlw	109	;'m'
   674     1030  3400               	retlw	0
   675     1031                     STR_3:
   676     1031  3457               	retlw	87	;'W'
   677     1032  3461               	retlw	97	;'a'
   678     1033  3473               	retlw	115	;'s'
   679     1034  3468               	retlw	104	;'h'
   680     1035  3469               	retlw	105	;'i'
   681     1036  346E               	retlw	110	;'n'
   682     1037  3467               	retlw	103	;'g'
   683     1038  3420               	retlw	32	;' '
   684     1039  344D               	retlw	77	;'M'
   685     103A  3461               	retlw	97	;'a'
   686     103B  3463               	retlw	99	;'c'
   687     103C  3468               	retlw	104	;'h'
   688     103D  3469               	retlw	105	;'i'
   689     103E  346E               	retlw	110	;'n'
   690     103F  3465               	retlw	101	;'e'
   691     1040  3400               	retlw	0
   692     1041                     STR_44:
   693     1041  3450               	retlw	80	;'P'
   694     1042  346C               	retlw	108	;'l'
   695     1043  3473               	retlw	115	;'s'
   696     1044  3420               	retlw	32	;' '
   697     1045  3463               	retlw	99	;'c'
   698     1046  346C               	retlw	108	;'l'
   699     1047  346F               	retlw	111	;'o'
   700     1048  3473               	retlw	115	;'s'
   701     1049  3465               	retlw	101	;'e'
   702     104A  3420               	retlw	32	;' '
   703     104B  3464               	retlw	100	;'d'
   704     104C  346F               	retlw	111	;'o'
   705     104D  346F               	retlw	111	;'o'
   706     104E  3472               	retlw	114	;'r'
   707     104F  3400               	retlw	0
   708     1050                     STR_42:
   709     1050  3452               	retlw	82	;'R'
   710     1051  3465               	retlw	101	;'e'
   711     1052  346D               	retlw	109	;'m'
   712     1053  346F               	retlw	111	;'o'
   713     1054  3476               	retlw	118	;'v'
   714     1055  3465               	retlw	101	;'e'
   715     1056  3420               	retlw	32	;' '
   716     1057  3463               	retlw	99	;'c'
   717     1058  346C               	retlw	108	;'l'
   718     1059  346F               	retlw	111	;'o'
   719     105A  3474               	retlw	116	;'t'
   720     105B  3468               	retlw	104	;'h'
   721     105C  3473               	retlw	115	;'s'
   722     105D  3400               	retlw	0
   723     105E                     STR_1:
   724     105E  3450               	retlw	80	;'P'
   725     105F  3472               	retlw	114	;'r'
   726     1060  3465               	retlw	101	;'e'
   727     1061  3473               	retlw	115	;'s'
   728     1062  3473               	retlw	115	;'s'
   729     1063  3420               	retlw	32	;' '
   730     1064  344B               	retlw	75	;'K'
   731     1065  3465               	retlw	101	;'e'
   732     1066  3479               	retlw	121	;'y'
   733     1067  3435               	retlw	53	;'5'
   734     1068  3420               	retlw	32	;' '
   735     1069  3474               	retlw	116	;'t'
   736     106A  346F               	retlw	111	;'o'
   737     106B  3400               	retlw	0
   738     106C                     STR_27:
   739     106C  3457               	retlw	87	;'W'
   740     106D  3441               	retlw	65	;'A'
   741     106E  3454               	retlw	84	;'T'
   742     106F  3445               	retlw	69	;'E'
   743     1070  3452               	retlw	82	;'R'
   744     1071  345F               	retlw	95	;'_'
   745     1072  344C               	retlw	76	;'L'
   746     1073  3445               	retlw	69	;'E'
   747     1074  3456               	retlw	86	;'V'
   748     1075  3445               	retlw	69	;'E'
   749     1076  344C               	retlw	76	;'L'
   750     1077  343A               	retlw	58	;':'
   751     1078  3400               	retlw	0
   752     1079                     STR_43:
   753     1079  3444               	retlw	68	;'D'
   754     107A  346F               	retlw	111	;'o'
   755     107B  346F               	retlw	111	;'o'
   756     107C  3472               	retlw	114	;'r'
   757     107D  3420               	retlw	32	;' '
   758     107E  3469               	retlw	105	;'i'
   759     107F  3473               	retlw	115	;'s'
   760     1080  3420               	retlw	32	;' '
   761     1081  346F               	retlw	111	;'o'
   762     1082  3470               	retlw	112	;'p'
   763     1083  3465               	retlw	101	;'e'
   764     1084  346E               	retlw	110	;'n'
   765     1085  3400               	retlw	0
   766     1086                     STR_4:
   767     1086  3450               	retlw	80	;'P'
   768     1087  3472               	retlw	114	;'r'
   769     1088  3465               	retlw	101	;'e'
   770     1089  3473               	retlw	115	;'s'
   771     108A  3473               	retlw	115	;'s'
   772     108B  3420               	retlw	32	;' '
   773     108C  3453               	retlw	83	;'S'
   774     108D  3477               	retlw	119	;'w'
   775     108E  3469               	retlw	105	;'i'
   776     108F  3474               	retlw	116	;'t'
   777     1090  3463               	retlw	99	;'c'
   778     1091  3468               	retlw	104	;'h'
   779     1092  3400               	retlw	0
   780     1093                     STR_24:
   781     1093  3470               	retlw	112	;'p'
   782     1094  346F               	retlw	111	;'o'
   783     1095  3477               	retlw	119	;'w'
   784     1096  3465               	retlw	101	;'e'
   785     1097  3472               	retlw	114	;'r'
   786     1098  3469               	retlw	105	;'i'
   787     1099  346E               	retlw	110	;'n'
   788     109A  3467               	retlw	103	;'g'
   789     109B  3420               	retlw	32	;' '
   790     109C  346F               	retlw	111	;'o'
   791     109D  346E               	retlw	110	;'n'
   792     109E  3400               	retlw	0
   793     109F                     STR_18:
   794     109F  3441               	retlw	65	;'A'
   795     10A0  3471               	retlw	113	;'q'
   796     10A1  3475               	retlw	117	;'u'
   797     10A2  3461               	retlw	97	;'a'
   798     10A3  3420               	retlw	32	;' '
   799     10A4  3473               	retlw	115	;'s'
   800     10A5  3474               	retlw	116	;'t'
   801     10A6  346F               	retlw	111	;'o'
   802     10A7  3472               	retlw	114	;'r'
   803     10A8  3465               	retlw	101	;'e'
   804     10A9  3400               	retlw	0
   805     10AA                     STR_11:
   806     10AA  3453               	retlw	83	;'S'
   807     10AB  3474               	retlw	116	;'t'
   808     10AC  3461               	retlw	97	;'a'
   809     10AD  3469               	retlw	105	;'i'
   810     10AE  346E               	retlw	110	;'n'
   811     10AF  3420               	retlw	32	;' '
   812     10B0  3477               	retlw	119	;'w'
   813     10B1  3461               	retlw	97	;'a'
   814     10B2  3473               	retlw	115	;'s'
   815     10B3  3468               	retlw	104	;'h'
   816     10B4  3400               	retlw	0
   817     10B5                     STR_12:
   818     10B5  3445               	retlw	69	;'E'
   819     10B6  3463               	retlw	99	;'c'
   820     10B7  346F               	retlw	111	;'o'
   821     10B8  3463               	retlw	99	;'c'
   822     10B9  346F               	retlw	111	;'o'
   823     10BA  3474               	retlw	116	;'t'
   824     10BB  3474               	retlw	116	;'t'
   825     10BC  346F               	retlw	111	;'o'
   826     10BD  346E               	retlw	110	;'n'
   827     10BE  3473               	retlw	115	;'s'
   828     10BF  3400               	retlw	0
   829     10C0                     STR_14:
   830     10C0  3442               	retlw	66	;'B'
   831     10C1  3465               	retlw	101	;'e'
   832     10C2  3464               	retlw	100	;'d'
   833     10C3  3420               	retlw	32	;' '
   834     10C4  3473               	retlw	115	;'s'
   835     10C5  3468               	retlw	104	;'h'
   836     10C6  3465               	retlw	101	;'e'
   837     10C7  3465               	retlw	101	;'e'
   838     10C8  3474               	retlw	116	;'t'
   839     10C9  3473               	retlw	115	;'s'
   840     10CA  3400               	retlw	0
   841     10CB                     STR_5:
   842     10CB  3453               	retlw	83	;'S'
   843     10CC  3457               	retlw	87	;'W'
   844     10CD  3435               	retlw	53	;'5'
   845     10CE  343A               	retlw	58	;':'
   846     10CF  3420               	retlw	32	;' '
   847     10D0  3453               	retlw	83	;'S'
   848     10D1  3454               	retlw	84	;'T'
   849     10D2  3441               	retlw	65	;'A'
   850     10D3  3452               	retlw	82	;'R'
   851     10D4  3454               	retlw	84	;'T'
   852     10D5  3400               	retlw	0
   853     10D6                     STR_30:
   854     10D6  3446               	retlw	70	;'F'
   855     10D7  3475               	retlw	117	;'u'
   856     10D8  346E               	retlw	110	;'n'
   857     10D9  3463               	retlw	99	;'c'
   858     10DA  3474               	retlw	116	;'t'
   859     10DB  3469               	retlw	105	;'i'
   860     10DC  346F               	retlw	111	;'o'
   861     10DD  346E               	retlw	110	;'n'
   862     10DE  343A               	retlw	58	;':'
   863     10DF  3400               	retlw	0
   864     10E0                     STR_33:
   865     10E0  3453               	retlw	83	;'S'
   866     10E1  3457               	retlw	87	;'W'
   867     10E2  3436               	retlw	54	;'6'
   868     10E3  343A               	retlw	58	;':'
   869     10E4  3450               	retlw	80	;'P'
   870     10E5  3441               	retlw	65	;'A'
   871     10E6  3455               	retlw	85	;'U'
   872     10E7  3453               	retlw	83	;'S'
   873     10E8  3445               	retlw	69	;'E'
   874     10E9  3400               	retlw	0
   875     10EA                     STR_32:
   876     10EA  3453               	retlw	83	;'S'
   877     10EB  3457               	retlw	87	;'W'
   878     10EC  3435               	retlw	53	;'5'
   879     10ED  343A               	retlw	58	;':'
   880     10EE  3453               	retlw	83	;'S'
   881     10EF  3454               	retlw	84	;'T'
   882     10F0  3441               	retlw	65	;'A'
   883     10F1  3452               	retlw	82	;'R'
   884     10F2  3454               	retlw	84	;'T'
   885     10F3  3400               	retlw	0
   886     10F4                     STR_9:
   887     10F4  3444               	retlw	68	;'D'
   888     10F5  3465               	retlw	101	;'e'
   889     10F6  3464               	retlw	100	;'d'
   890     10F7  3469               	retlw	105	;'i'
   891     10F8  3463               	retlw	99	;'c'
   892     10F9  3461               	retlw	97	;'a'
   893     10FA  3474               	retlw	116	;'t'
   894     10FB  3465               	retlw	101	;'e'
   895     10FC  3473               	retlw	115	;'s'
   896     10FD  3400               	retlw	0
   897     10FE                     STR_17:
   898     10FE  3457               	retlw	87	;'W'
   899     10FF  3461               	retlw	97	;'a'
   900     1100  3473               	retlw	115	;'s'
   901     1101  3468               	retlw	104	;'h'
   902     1102  3420               	retlw	32	;' '
   903     1103  346F               	retlw	111	;'o'
   904     1104  346E               	retlw	110	;'n'
   905     1105  346C               	retlw	108	;'l'
   906     1106  3479               	retlw	121	;'y'
   907     1107  3400               	retlw	0
   908     1108                     STR_15:
   909     1108  3452               	retlw	82	;'R'
   910     1109  3469               	retlw	105	;'i'
   911     110A  346E               	retlw	110	;'n'
   912     110B  3473               	retlw	115	;'s'
   913     110C  3465               	retlw	101	;'e'
   914     110D  342B               	retlw	43	;'+'
   915     110E  3444               	retlw	68	;'D'
   916     110F  3472               	retlw	114	;'r'
   917     1110  3479               	retlw	121	;'y'
   918     1111  3400               	retlw	0
   919     1112                     STR_6:
   920     1112  3453               	retlw	83	;'S'
   921     1113  3457               	retlw	87	;'W'
   922     1114  3436               	retlw	54	;'6'
   923     1115  343A               	retlw	58	;':'
   924     1116  3420               	retlw	32	;' '
   925     1117  3453               	retlw	83	;'S'
   926     1118  3454               	retlw	84	;'T'
   927     1119  344F               	retlw	79	;'O'
   928     111A  3450               	retlw	80	;'P'
   929     111B  3400               	retlw	0
   930     111C                     STR_16:
   931     111C  3444               	retlw	68	;'D'
   932     111D  3472               	retlw	114	;'r'
   933     111E  3479               	retlw	121	;'y'
   934     111F  3420               	retlw	32	;' '
   935     1120  346F               	retlw	111	;'o'
   936     1121  346E               	retlw	110	;'n'
   937     1122  346C               	retlw	108	;'l'
   938     1123  3479               	retlw	121	;'y'
   939     1124  3400               	retlw	0
   940     1125                     STR_2:
   941     1125  3450               	retlw	80	;'P'
   942     1126  346F               	retlw	111	;'o'
   943     1127  3477               	retlw	119	;'w'
   944     1128  3465               	retlw	101	;'e'
   945     1129  3472               	retlw	114	;'r'
   946     112A  3420               	retlw	32	;' '
   947     112B  344F               	retlw	79	;'O'
   948     112C  344E               	retlw	78	;'N'
   949     112D  3400               	retlw	0
   950     112E                     STR_13:
   951     112E  3457               	retlw	87	;'W'
   952     112F  346F               	retlw	111	;'o'
   953     1130  346F               	retlw	111	;'o'
   954     1131  346C               	retlw	108	;'l'
   955     1132  3465               	retlw	101	;'e'
   956     1133  346E               	retlw	110	;'n'
   957     1134  3473               	retlw	115	;'s'
   958     1135  3400               	retlw	0
   959     1136                     STR_35:
   960     1136  3452               	retlw	82	;'R'
   961     1137  3469               	retlw	105	;'i'
   962     1138  346E               	retlw	110	;'n'
   963     1139  3473               	retlw	115	;'s'
   964     113A  3465               	retlw	101	;'e'
   965     113B  3420               	retlw	32	;' '
   966     113C  3400               	retlw	0
   967     113D                     STR_21:
   968     113D  344D               	retlw	77	;'M'
   969     113E  3465               	retlw	101	;'e'
   970     113F  3464               	retlw	100	;'d'
   971     1140  3469               	retlw	105	;'i'
   972     1141  3475               	retlw	117	;'u'
   973     1142  346D               	retlw	109	;'m'
   974     1143  3400               	retlw	0
   975     1144                     STR_10:
   976     1144  3457               	retlw	87	;'W'
   977     1145  3468               	retlw	104	;'h'
   978     1146  3469               	retlw	105	;'i'
   979     1147  3474               	retlw	116	;'t'
   980     1148  3465               	retlw	101	;'e'
   981     1149  3473               	retlw	115	;'s'
   982     114A  3400               	retlw	0
   983     114B                     STR_34:
   984     114B  3457               	retlw	87	;'W'
   985     114C  3461               	retlw	97	;'a'
   986     114D  3473               	retlw	115	;'s'
   987     114E  3468               	retlw	104	;'h'
   988     114F  3420               	retlw	32	;' '
   989     1150  3400               	retlw	0
   990     1151                     STR_40:
   991     1151  3477               	retlw	119	;'w'
   992     1152  3461               	retlw	97	;'a'
   993     1153  3473               	retlw	115	;'s'
   994     1154  3468               	retlw	104	;'h'
   995     1155  3420               	retlw	32	;' '
   996     1156  3400               	retlw	0
   997     1157                     STR_36:
   998     1157  3453               	retlw	83	;'S'
   999     1158  3470               	retlw	112	;'p'
  1000     1159  3469               	retlw	105	;'i'
  1001     115A  346E               	retlw	110	;'n'
  1002     115B  3420               	retlw	32	;' '
  1003     115C  3400               	retlw	0
  1004     115D                     STR_7:
  1005     115D  3444               	retlw	68	;'D'
  1006     115E  3461               	retlw	97	;'a'
  1007     115F  3469               	retlw	105	;'i'
  1008     1160  346C               	retlw	108	;'l'
  1009     1161  3479               	retlw	121	;'y'
  1010     1162  3400               	retlw	0
  1011     1163                     STR_8:
  1012     1163  3448               	retlw	72	;'H'
  1013     1164  3465               	retlw	101	;'e'
  1014     1165  3461               	retlw	97	;'a'
  1015     1166  3476               	retlw	118	;'v'
  1016     1167  3479               	retlw	121	;'y'
  1017     1168  3400               	retlw	0
  1018     1169                     STR_29:
  1019     1169  3454               	retlw	84	;'T'
  1020     116A  3469               	retlw	105	;'i'
  1021     116B  346D               	retlw	109	;'m'
  1022     116C  3465               	retlw	101	;'e'
  1023     116D  3400               	retlw	0
  1024     116E                     STR_28:
  1025     116E  3450               	retlw	80	;'P'
  1026     116F  3472               	retlw	114	;'r'
  1027     1170  346F               	retlw	111	;'o'
  1028     1171  3467               	retlw	103	;'g'
  1029     1172  3400               	retlw	0
  1030     1173                     STR_22:
  1031     1173  3448               	retlw	72	;'H'
  1032     1174  3469               	retlw	105	;'i'
  1033     1175  3467               	retlw	103	;'g'
  1034     1176  3468               	retlw	104	;'h'
  1035     1177  3400               	retlw	0
  1036     1178                     STR_19:
  1037     1178  3441               	retlw	65	;'A'
  1038     1179  3475               	retlw	117	;'u'
  1039     117A  3474               	retlw	116	;'t'
  1040     117B  346F               	retlw	111	;'o'
  1041     117C  3400               	retlw	0
  1042     117D                     STR_20:
  1043     117D  344C               	retlw	76	;'L'
  1044     117E  346F               	retlw	111	;'o'
  1045     117F  3477               	retlw	119	;'w'
  1046     1180  3400               	retlw	0
  1047     1181                     STR_23:
  1048     1181  346D               	retlw	109	;'m'
  1049     1182  3461               	retlw	97	;'a'
  1050     1183  3478               	retlw	120	;'x'
  1051     1184  3400               	retlw	0
  1052     1169                     STR_31          equ	STR_29
  1053     1169                     STR_46          equ	STR_29
  1054     10EA                     STR_47          equ	STR_32
  1055     10E0                     STR_48          equ	STR_33
  1056     10D6                     STR_45          equ	STR_30
  1057     1157                     STR_38          equ	STR_36
  1058     1136                     STR_37          equ	STR_35
  1059     1136                     STR_39          equ	STR_35
  1060                           
  1061                           	psect	cinit
  1062     000F                     start_initialization:	
  1063                           ; #config settings
  1064                           
  1065     000F                     __initialization:
  1066                           
  1067                           ; Initialize objects allocated to BANK1
  1068     000F  1383               	bcf	3,7	;select IRP bank0
  1069     0010  30C2               	movlw	low (__pdataBANK1+34)
  1070     0011  00FD               	movwf	btemp+-1
  1071     0012  3013               	movlw	high __pidataBANK1
  1072     0013  00FE               	movwf	btemp
  1073     0014  309A               	movlw	low __pidataBANK1
  1074     0015  00FF               	movwf	btemp+1
  1075     0016  30A0               	movlw	low __pdataBANK1
  1076     0017  0084               	movwf	4
  1077     0018  160A  118A  2356  120A  118A  	fcall	init_ram0
  1078                           
  1079                           ; Initialize objects allocated to BANK0
  1080     001D  120A  118A  27FF  120A  118A  	fcall	__pidataBANK0	;fetch initializer
  1081     0022  00ED               	movwf	__pdataBANK0& (0+127)
  1082                           
  1083                           ; Initialize objects allocated to COMMON
  1084     0023  160A  118A  2325  120A  118A  	fcall	__pidataCOMMON	;fetch initializer
  1085     0028  00F9               	movwf	__pdataCOMMON& (0+127)
  1086     0029  160A  118A  2326  120A  118A  	fcall	__pidataCOMMON+1	;fetch initializer
  1087     002E  00FA               	movwf	(__pdataCOMMON+1)& (0+127)
  1088     002F  160A  118A  2327  120A  118A  	fcall	__pidataCOMMON+2	;fetch initializer
  1089     0034  00FB               	movwf	(__pdataCOMMON+2)& (0+127)
  1090                           
  1091                           ; Clear objects allocated to BANK1
  1092     0035  30C2               	movlw	low __pbssBANK1
  1093     0036  0084               	movwf	4
  1094     0037  30DB               	movlw	low (__pbssBANK1+25)
  1095     0038  160A  118A  232E  120A  118A  	fcall	clear_ram0
  1096                           
  1097                           ; Clear objects allocated to BANK0
  1098     003D  01E9               	clrf	__pbssBANK0& (0+127)
  1099     003E  01EA               	clrf	(__pbssBANK0+1)& (0+127)
  1100     003F  01EB               	clrf	(__pbssBANK0+2)& (0+127)
  1101     0040  01EC               	clrf	(__pbssBANK0+3)& (0+127)
  1102     0041                     end_of_initialization:	
  1103                           ;End of C runtime variable initialization code
  1104                           
  1105     0041                     __end_of__initialization:
  1106     0041  0183               	clrf	3
  1107     0042  120A  158A  2A4B   	ljmp	_main	;jump to C main() function
  1108                           
  1109                           	psect	dataCOMMON
  1110     0079                     __pdataCOMMON:
  1111     0079                     read_digital_keypad@long_press:
  1112     0079                     	ds	1
  1113     007A                     read_digital_keypad@once:
  1114     007A                     	ds	1
  1115     007B                     _reset_flag:
  1116     007B                     	ds	1
  1117                           
  1118                           	psect	bssBANK0
  1119     0069                     __pbssBANK0:
  1120     0069                     _level:
  1121     0069                     	ds	1
  1122     006A                     _program_no:
  1123     006A                     	ds	1
  1124     006B                     _min:
  1125     006B                     	ds	1
  1126     006C                     _sec:
  1127     006C                     	ds	1
  1128                           
  1129                           	psect	dataBANK0
  1130     006D                     __pdataBANK0:
  1131     006D                     _operational_mode:
  1132     006D                     	ds	1
  1133                           
  1134                           	psect	bssBANK1
  1135     00C2                     __pbssBANK1:
  1136     00C2                     _time:
  1137     00C2                     	ds	4
  1138     00C6                     _spin_time:
  1139     00C6                     	ds	4
  1140     00CA                     _rinse_time:
  1141     00CA                     	ds	4
  1142     00CE                     _wash_time:
  1143     00CE                     	ds	4
  1144     00D2                     _total_time:
  1145     00D2                     	ds	4
  1146     00D6                     isr@count:
  1147     00D6                     	ds	4
  1148     00DA                     read_digital_keypad@pre_key:
  1149     00DA                     	ds	1
  1150                           
  1151                           	psect	dataBANK1
  1152     00A0                     __pdataBANK1:
  1153     00A0                     _washing_program:
  1154     00A0                     	ds	24
  1155     00B8                     _water_level:
  1156     00B8                     	ds	10
  1157                           
  1158                           	psect	inittext
  1159     1352                     init_fetch0:	
  1160                           ;	Called with low address in FSR and high address in W
  1161                           
  1162     1352  087E               	movf	btemp,w
  1163     1353  008A               	movwf	10
  1164     1354  087F               	movf	btemp+1,w
  1165     1355  0082               	movwf	2
  1166     1356                     init_ram0:	
  1167                           ;Called with:
  1168                           ;	high address of idata address in btemp 
  1169                           ;	low address of idata address in btemp+1 
  1170                           ;	low address of data in FSR
  1171                           ;	high address + 1 of data in btemp-1
  1172                           
  1173     1356  160A  118A  2352  160A  118A  	fcall	init_fetch0
  1174     135B  0080               	movwf	0
  1175     135C  0A84               	incf	4,f
  1176     135D  0804               	movf	4,w
  1177     135E  067D               	xorwf	btemp+-1,w
  1178     135F  1903               	btfsc	3,2
  1179     1360  3400               	retlw	0
  1180     1361  0AFF               	incf	btemp+1,f
  1181     1362  1903               	btfsc	3,2
  1182     1363  0AFE               	incf	btemp,f
  1183     1364  2B56               	goto	init_ram0
  1184                           
  1185                           	psect	clrtext
  1186     132E                     clear_ram0:	
  1187                           ;	Called with FSR containing the base address, and
  1188                           ;	W with the last address+1
  1189                           
  1190     132E  0064               	clrwdt	;clear the watchdog before getting into this loop
  1191     132F                     clrloop0:
  1192     132F  0180               	clrf	0	;clear RAM location pointed to by FSR
  1193     1330  0A84               	incf	4,f	;increment pointer
  1194     1331  0604               	xorwf	4,w	;XOR with final address
  1195     1332  1903               	btfsc	3,2	;have we reached the end yet?
  1196     1333  3400               	retlw	0	;all done for this memory range, return
  1197     1334  0604               	xorwf	4,w	;XOR again to restore value
  1198     1335  2B2F               	goto	clrloop0	;do the next byte
  1199                           
  1200                           	psect	cstackBANK1
  1201     00DB                     __pcstackBANK1:
  1202     00DB                     main@delay:
  1203                           
  1204                           ; 2 bytes @ 0x0
  1205     00DB                     	ds	2
  1206     00DD                     main@delay_93:
  1207                           
  1208                           ; 2 bytes @ 0x2
  1209     00DD                     	ds	2
  1210     00DF                     main@key:
  1211                           
  1212                           ; 1 bytes @ 0x4
  1213     00DF                     	ds	1
  1214                           
  1215                           	psect	cstackCOMMON
  1216     0070                     __pcstackCOMMON:
  1217     0070                     ?_init_clcd:
  1218     0070                     ?_init_digital_keypad:	
  1219                           ; 1 bytes @ 0x0
  1220                           
  1221     0070                     ?_init_timer2:	
  1222                           ; 1 bytes @ 0x0
  1223                           
  1224     0070                     ?_read_digital_keypad:	
  1225                           ; 1 bytes @ 0x0
  1226                           
  1227     0070                     ?_clear_screen:	
  1228                           ; 1 bytes @ 0x0
  1229                           
  1230     0070                     ?_power_on_screen:	
  1231                           ; 1 bytes @ 0x0
  1232                           
  1233     0070                     ?_set_time:	
  1234                           ; 1 bytes @ 0x0
  1235                           
  1236     0070                     ?_washing_program_display:	
  1237                           ; 1 bytes @ 0x0
  1238                           
  1239     0070                     ?_water_level_screen:	
  1240                           ; 1 bytes @ 0x0
  1241                           
  1242     0070                     ?_run_program:	
  1243                           ; 1 bytes @ 0x0
  1244                           
  1245     0070                     ?_door_status_check:	
  1246                           ; 1 bytes @ 0x0
  1247                           
  1248     0070                     ?_init_config:	
  1249                           ; 1 bytes @ 0x0
  1250                           
  1251     0070                     ?_main:	
  1252                           ; 1 bytes @ 0x0
  1253                           
  1254     0070                     ?_init_display_controller:	
  1255                           ; 1 bytes @ 0x0
  1256                           
  1257     0070                     ?_isr:	
  1258                           ; 1 bytes @ 0x0
  1259                           
  1260     0070                     read_digital_keypad@mode:	
  1261                           ; 1 bytes @ 0x0
  1262                           
  1263     0070                     ??_isr:	
  1264                           ; 1 bytes @ 0x0
  1265                           
  1266                           
  1267                           ; 1 bytes @ 0x0
  1268     0070                     	ds	2
  1269     0072                     ?_clcd_write:
  1270     0072                     ?__Umul8_16:	
  1271                           ; 1 bytes @ 0x2
  1272                           
  1273     0072                     ?___wmul:	
  1274                           ; 2 bytes @ 0x2
  1275                           
  1276     0072                     ?___awdiv:	
  1277                           ; 2 bytes @ 0x2
  1278                           
  1279     0072                     ?___awmod:	
  1280                           ; 2 bytes @ 0x2
  1281                           
  1282     0072                     ?___fltol:	
  1283                           ; 2 bytes @ 0x2
  1284                           
  1285     0072                     clcd_write@mode:	
  1286                           ; 4 bytes @ 0x2
  1287                           
  1288     0072                     read_digital_keypad@key:	
  1289                           ; 1 bytes @ 0x2
  1290                           
  1291     0072                     ___fladd@signs:	
  1292                           ; 1 bytes @ 0x2
  1293                           
  1294     0072                     __Umul8_16@multiplicand:	
  1295                           ; 1 bytes @ 0x2
  1296                           
  1297     0072                     ___wmul@multiplier:	
  1298                           ; 1 bytes @ 0x2
  1299                           
  1300     0072                     ___awdiv@divisor:	
  1301                           ; 2 bytes @ 0x2
  1302                           
  1303     0072                     ___awmod@divisor:	
  1304                           ; 2 bytes @ 0x2
  1305                           
  1306     0072                     ___fltol@f1:	
  1307                           ; 2 bytes @ 0x2
  1308                           
  1309     0072                     ??_init_digital_keypad:	
  1310                           ; 4 bytes @ 0x2
  1311                           
  1312     0072                     ??_init_timer2:	
  1313                           ; 1 bytes @ 0x2
  1314                           
  1315     0072                     ??_read_digital_keypad:	
  1316                           ; 1 bytes @ 0x2
  1317                           
  1318     0072                     ??_set_time:	
  1319                           ; 1 bytes @ 0x2
  1320                           
  1321                           
  1322                           ; 1 bytes @ 0x2
  1323     0072                     	ds	1
  1324     0073                     ___fladd@aexp:
  1325     0073                     ??_clcd_write:	
  1326                           ; 1 bytes @ 0x3
  1327                           
  1328                           
  1329                           ; 1 bytes @ 0x3
  1330     0073                     	ds	1
  1331     0074                     ___fladd@bexp:
  1332     0074                     ___wmul@multiplicand:	
  1333                           ; 1 bytes @ 0x4
  1334                           
  1335     0074                     ___awdiv@dividend:	
  1336                           ; 2 bytes @ 0x4
  1337                           
  1338     0074                     ___awmod@dividend:	
  1339                           ; 2 bytes @ 0x4
  1340                           
  1341     0074                     ??__Umul8_16:	
  1342                           ; 2 bytes @ 0x4
  1343                           
  1344                           
  1345                           ; 1 bytes @ 0x4
  1346     0074                     	ds	1
  1347     0075                     clcd_write@byte:
  1348     0075                     ___fladd@grs:	
  1349                           ; 1 bytes @ 0x5
  1350                           
  1351                           
  1352                           ; 1 bytes @ 0x5
  1353     0075                     	ds	1
  1354     0076                     ___awmod@counter:
  1355     0076                     ___fltol@sign1:	
  1356                           ; 1 bytes @ 0x6
  1357                           
  1358     0076                     ___wmul@product:	
  1359                           ; 1 bytes @ 0x6
  1360                           
  1361     0076                     ??_clear_screen:	
  1362                           ; 2 bytes @ 0x6
  1363                           
  1364     0076                     ??_init_display_controller:	
  1365                           ; 1 bytes @ 0x6
  1366                           
  1367     0076                     ??___wmul:	
  1368                           ; 1 bytes @ 0x6
  1369                           
  1370     0076                     ??___awdiv:	
  1371                           ; 1 bytes @ 0x6
  1372                           
  1373     0076                     ??___awmod:	
  1374                           ; 1 bytes @ 0x6
  1375                           
  1376                           
  1377                           ; 1 bytes @ 0x6
  1378     0076                     	ds	1
  1379     0077                     ___awmod@sign:
  1380     0077                     ___fltol@exp1:	
  1381                           ; 1 bytes @ 0x7
  1382                           
  1383                           
  1384                           ; 1 bytes @ 0x7
  1385     0077                     	ds	1
  1386     0078                     ?_clcd_putch:
  1387     0078                     clcd_putch@addr:	
  1388                           ; 1 bytes @ 0x8
  1389                           
  1390     0078                     ??_init_clcd:	
  1391                           ; 1 bytes @ 0x8
  1392                           
  1393     0078                     ??_clcd_print:	
  1394                           ; 1 bytes @ 0x8
  1395                           
  1396     0078                     ??_door_status_check:	
  1397                           ; 1 bytes @ 0x8
  1398                           
  1399     0078                     ??_init_config:	
  1400                           ; 1 bytes @ 0x8
  1401                           
  1402     0078                     ??___flsub:	
  1403                           ; 1 bytes @ 0x8
  1404                           
  1405                           
  1406                           ; 1 bytes @ 0x8
  1407     0078                     	ds	1
  1408     0079                     ??_main:
  1409     0079                     ??_clcd_putch:	
  1410                           ; 1 bytes @ 0x9
  1411                           
  1412                           
  1413                           	psect	cstackBANK0
  1414     0020                     __pcstackBANK0:	
  1415                           ; 1 bytes @ 0x9
  1416                           
  1417     0020                     ?_clcd_print:
  1418     0020                     ?___fladd:	
  1419                           ; 1 bytes @ 0x0
  1420                           
  1421     0020                     ___awdiv@counter:	
  1422                           ; 4 bytes @ 0x0
  1423                           
  1424     0020                     clcd_print@str:	
  1425                           ; 1 bytes @ 0x0
  1426                           
  1427     0020                     __Umul8_16@product:	
  1428                           ; 2 bytes @ 0x0
  1429                           
  1430     0020                     ___fladd@b:	
  1431                           ; 2 bytes @ 0x0
  1432                           
  1433     0020                     ??___fltol:	
  1434                           ; 4 bytes @ 0x0
  1435                           
  1436                           
  1437                           ; 1 bytes @ 0x0
  1438     0020                     	ds	1
  1439     0021                     ___awdiv@sign:
  1440                           
  1441                           ; 1 bytes @ 0x1
  1442     0021                     	ds	1
  1443     0022                     clcd_print@addr:
  1444     0022                     ___awdiv@quotient:	
  1445                           ; 1 bytes @ 0x2
  1446                           
  1447     0022                     __Umul8_16@word_mpld:	
  1448                           ; 2 bytes @ 0x2
  1449                           
  1450                           
  1451                           ; 2 bytes @ 0x2
  1452     0022                     	ds	2
  1453     0024                     ?___xxtofl:
  1454     0024                     clcd_putch@data:	
  1455                           ; 4 bytes @ 0x4
  1456                           
  1457     0024                     __Umul8_16@multiplier:	
  1458                           ; 1 bytes @ 0x4
  1459                           
  1460     0024                     ___fladd@a:	
  1461                           ; 1 bytes @ 0x4
  1462                           
  1463     0024                     ___xxtofl@val:	
  1464                           ; 4 bytes @ 0x4
  1465                           
  1466                           
  1467                           ; 4 bytes @ 0x4
  1468     0024                     	ds	1
  1469     0025                     ??_power_on_screen:
  1470     0025                     ??_washing_program_display:	
  1471                           ; 1 bytes @ 0x5
  1472                           
  1473     0025                     ??_water_level_screen:	
  1474                           ; 1 bytes @ 0x5
  1475                           
  1476                           
  1477                           ; 1 bytes @ 0x5
  1478     0025                     	ds	2
  1479     0027                     washing_program_display@key:
  1480     0027                     water_level_screen@key:	
  1481                           ; 1 bytes @ 0x7
  1482                           
  1483                           
  1484                           ; 1 bytes @ 0x7
  1485     0027                     	ds	1
  1486     0028                     power_on_screen@i:
  1487     0028                     ??___fladd:	
  1488                           ; 1 bytes @ 0x8
  1489                           
  1490     0028                     ??___xxtofl:	
  1491                           ; 1 bytes @ 0x8
  1492                           
  1493                           
  1494                           ; 1 bytes @ 0x8
  1495     0028                     	ds	1
  1496     0029                     power_on_screen@i_194:
  1497                           
  1498                           ; 1 bytes @ 0x9
  1499     0029                     	ds	3
  1500     002C                     ___xxtofl@sign:
  1501                           
  1502                           ; 1 bytes @ 0xC
  1503     002C                     	ds	1
  1504     002D                     ___xxtofl@exp:
  1505                           
  1506                           ; 1 bytes @ 0xD
  1507     002D                     	ds	1
  1508     002E                     ___xxtofl@arg:
  1509                           
  1510                           ; 4 bytes @ 0xE
  1511     002E                     	ds	4
  1512     0032                     ?___flmul:
  1513     0032                     ___flmul@b:	
  1514                           ; 4 bytes @ 0x12
  1515                           
  1516                           
  1517                           ; 4 bytes @ 0x12
  1518     0032                     	ds	4
  1519     0036                     ___flmul@a:
  1520                           
  1521                           ; 4 bytes @ 0x16
  1522     0036                     	ds	4
  1523     003A                     ??___flmul:
  1524                           
  1525                           ; 1 bytes @ 0x1A
  1526     003A                     	ds	5
  1527     003F                     ___flmul@sign:
  1528                           
  1529                           ; 1 bytes @ 0x1F
  1530     003F                     	ds	1
  1531     0040                     ___flmul@aexp:
  1532                           
  1533                           ; 1 bytes @ 0x20
  1534     0040                     	ds	1
  1535     0041                     ___flmul@grs:
  1536                           
  1537                           ; 4 bytes @ 0x21
  1538     0041                     	ds	4
  1539     0045                     ___flmul@bexp:
  1540                           
  1541                           ; 1 bytes @ 0x25
  1542     0045                     	ds	1
  1543     0046                     ___flmul@prod:
  1544                           
  1545                           ; 4 bytes @ 0x26
  1546     0046                     	ds	4
  1547     004A                     ___flmul@temp:
  1548                           
  1549                           ; 2 bytes @ 0x2A
  1550     004A                     	ds	2
  1551     004C                     ?___flsub:
  1552     004C                     ___flsub@a:	
  1553                           ; 4 bytes @ 0x2C
  1554                           
  1555                           
  1556                           ; 4 bytes @ 0x2C
  1557     004C                     	ds	4
  1558     0050                     ___flsub@b:
  1559                           
  1560                           ; 4 bytes @ 0x30
  1561     0050                     	ds	4
  1562     0054                     ?___flge:
  1563     0054                     ___flge@ff1:	
  1564                           ; 1 bit 
  1565                           
  1566                           
  1567                           ; 4 bytes @ 0x34
  1568     0054                     	ds	4
  1569     0058                     ___flge@ff2:
  1570                           
  1571                           ; 4 bytes @ 0x38
  1572     0058                     	ds	4
  1573     005C                     ??___flge:
  1574                           
  1575                           ; 1 bytes @ 0x3C
  1576     005C                     	ds	4
  1577     0060                     ??_run_program:
  1578                           
  1579                           ; 1 bytes @ 0x40
  1580     0060                     	ds	4
  1581     0064                     run_program@key:
  1582                           
  1583                           ; 1 bytes @ 0x44
  1584     0064                     	ds	1
  1585     0065                     _run_program$838:
  1586                           
  1587                           ; 4 bytes @ 0x45
  1588     0065                     	ds	4
  1589                           
  1590                           	psect	maintext
  1591     0A4B                     __pmaintext:	
  1592 ;;
  1593 ;;Main: autosize = 0, tempsize = 0, incstack = 0, save=0
  1594 ;;
  1595 ;; *************** function _main *****************
  1596 ;; Defined at:
  1597 ;;		line 23 in file "main.c"
  1598 ;; Parameters:    Size  Location     Type
  1599 ;;		None
  1600 ;; Auto vars:     Size  Location     Type
  1601 ;;  delay           2    2[BANK1 ] unsigned int 
  1602 ;;  delay           2    0[BANK1 ] unsigned int 
  1603 ;;  key             1    4[BANK1 ] unsigned char 
  1604 ;; Return value:  Size  Location     Type
  1605 ;;                  1    wreg      void 
  1606 ;; Registers used:
  1607 ;;		wreg, fsr0l, fsr0h, status,2, status,0, btemp+1, pclath, cstack
  1608 ;; Tracked objects:
  1609 ;;		On entry : B00/0
  1610 ;;		On exit  : 0/0
  1611 ;;		Unchanged: 0/0
  1612 ;; Data sizes:     COMMON   BANK0   BANK1   BANK3   BANK2
  1613 ;;      Params:         0       0       0       0       0
  1614 ;;      Locals:         0       0       5       0       0
  1615 ;;      Temps:          0       0       0       0       0
  1616 ;;      Totals:         0       0       5       0       0
  1617 ;;Total ram usage:        5 bytes
  1618 ;; Hardware stack levels required when called: 5
  1619 ;; This function calls:
  1620 ;;		_clcd_print
  1621 ;;		_clear_screen
  1622 ;;		_init_config
  1623 ;;		_power_on_screen
  1624 ;;		_read_digital_keypad
  1625 ;;		_run_program
  1626 ;;		_set_time
  1627 ;;		_washing_program_display
  1628 ;;		_water_level_screen
  1629 ;; This function is called by:
  1630 ;;		Startup code after reset
  1631 ;; This function uses a non-reentrant model
  1632 ;;
  1633                           
  1634     0A4B                     _main:	
  1635                           ;psect for function _main
  1636                           
  1637     0A4B                     l4184:	
  1638                           ;incstack = 0
  1639                           ; Regs used in _main: [wreg-fsr0h+status,2+status,0+btemp+1+pclath+cstack]
  1640                           
  1641                           
  1642                           ;main.c: 24:     while(read_digital_keypad(1) != 0x2F )
  1643     0A4B  120A  158A  2002  120A  158A  	fcall	_init_config
  1644     0A50                     l4186:
  1645                           
  1646                           ;main.c: 25:     {;main.c: 26:         for(unsigned int delay = 3000;delay--;);
  1647     0A50  305E               	movlw	low (STR_1| (0+32768))
  1648     0A51  1283               	bcf	3,5	;RP0=0, select bank0
  1649     0A52  1303               	bcf	3,6	;RP1=0, select bank0
  1650     0A53  00A0               	movwf	clcd_print@str
  1651     0A54  3090               	movlw	high (STR_1| (0+32768))
  1652     0A55  00A1               	movwf	clcd_print@str+1
  1653     0A56  3081               	movlw	129
  1654     0A57  00A2               	movwf	clcd_print@addr
  1655     0A58  120A  118A  27BE  120A  158A  	fcall	_clcd_print
  1656     0A5D                     l4188:
  1657                           
  1658                           ;main.c: 27:     }
  1659     0A5D  3025               	movlw	low (STR_2| (0+32768))
  1660     0A5E  1283               	bcf	3,5	;RP0=0, select bank0
  1661     0A5F  1303               	bcf	3,6	;RP1=0, select bank0
  1662     0A60  00A0               	movwf	clcd_print@str
  1663     0A61  3091               	movlw	high (STR_2| (0+32768))
  1664     0A62  00A1               	movwf	clcd_print@str+1
  1665     0A63  30C5               	movlw	197
  1666     0A64  00A2               	movwf	clcd_print@addr
  1667     0A65  120A  118A  27BE  120A  158A  	fcall	_clcd_print
  1668     0A6A                     l4190:
  1669                           
  1670                           ;main.c: 28: 
  1671     0A6A  3031               	movlw	low (STR_3| (0+32768))
  1672     0A6B  1283               	bcf	3,5	;RP0=0, select bank0
  1673     0A6C  1303               	bcf	3,6	;RP1=0, select bank0
  1674     0A6D  00A0               	movwf	clcd_print@str
  1675     0A6E  3090               	movlw	high (STR_3| (0+32768))
  1676     0A6F  00A1               	movwf	clcd_print@str+1
  1677     0A70  3091               	movlw	145
  1678     0A71  00A2               	movwf	clcd_print@addr
  1679     0A72  120A  118A  27BE  120A  158A  	fcall	_clcd_print
  1680                           
  1681                           ;main.c: 29:     clear_screen();
  1682     0A77  2A8C               	goto	l4196
  1683     0A78                     l4192:
  1684                           
  1685                           ;main.c: 30:     power_on_screen();;main.c: 31: 
  1686     0A78  30B8               	movlw	184
  1687     0A79  1683               	bsf	3,5	;RP0=1, select bank1
  1688     0A7A  1303               	bcf	3,6	;RP1=0, select bank1
  1689     0A7B  00DB               	movwf	main@delay^(0+128)
  1690     0A7C  300B               	movlw	11
  1691     0A7D  00DC               	movwf	(main@delay^(0+128)+1)
  1692     0A7E                     l4194:
  1693     0A7E  3001               	movlw	1
  1694     0A7F  02DB               	subwf	main@delay^(0+128),f
  1695     0A80  3000               	movlw	0
  1696     0A81  1C03               	skipc
  1697     0A82  03DC               	decf	(main@delay+1)^(0+128),f
  1698     0A83  02DC               	subwf	(main@delay+1)^(0+128),f
  1699     0A84  0A5B               	incf	main@delay^(0+128),w
  1700     0A85  1D03               	skipz
  1701     0A86  2A8B               	goto	u5591
  1702     0A87  0A5C               	incf	(main@delay+1)^(0+128),w
  1703     0A88  1D03               	btfss	3,2
  1704     0A89  2A8B               	goto	u5591
  1705     0A8A  2A8C               	goto	u5590
  1706     0A8B                     u5591:
  1707     0A8B  2A7E               	goto	l4194
  1708     0A8C                     u5590:
  1709     0A8C                     l4196:
  1710                           
  1711                           ;main.c: 29:     clear_screen();
  1712     0A8C  3001               	movlw	1
  1713     0A8D  160A  118A  247B  120A  158A  	fcall	_read_digital_keypad
  1714     0A92  3A2F               	xorlw	47
  1715     0A93  1D03               	skipz
  1716     0A94  2A96               	goto	u5601
  1717     0A95  2A97               	goto	u5600
  1718     0A96                     u5601:
  1719     0A96  2A78               	goto	l4192
  1720     0A97                     u5600:
  1721     0A97                     l4198:
  1722                           
  1723                           ;main.c: 34:         key = read_digital_keypad(1);
  1724     0A97  160A  118A  2341  120A  158A  	fcall	_clear_screen
  1725     0A9C                     l4200:
  1726                           
  1727                           ;main.c: 35: 
  1728     0A9C  160A  118A  264D  120A  158A  	fcall	_power_on_screen
  1729     0AA1                     l4202:
  1730                           
  1731                           ;main.c: 39:         {
  1732     0AA1  3001               	movlw	1
  1733     0AA2  160A  118A  247B  120A  158A  	fcall	_read_digital_keypad
  1734     0AA7  1683               	bsf	3,5	;RP0=1, select bank1
  1735     0AA8  1303               	bcf	3,6	;RP1=0, select bank1
  1736     0AA9  00DF               	movwf	main@key^(0+128)
  1737     0AAA                     l4204:
  1738                           
  1739                           ;main.c: 41:             reset_flag = 0x22;
  1740     0AAA  30B8               	movlw	184
  1741     0AAB  00DD               	movwf	main@delay_93^(0+128)
  1742     0AAC  300B               	movlw	11
  1743     0AAD  00DE               	movwf	(main@delay_93^(0+128)+1)
  1744     0AAE                     l4206:
  1745     0AAE  3001               	movlw	1
  1746     0AAF  02DD               	subwf	main@delay_93^(0+128),f
  1747     0AB0  3000               	movlw	0
  1748     0AB1  1C03               	skipc
  1749     0AB2  03DE               	decf	(main@delay_93+1)^(0+128),f
  1750     0AB3  02DE               	subwf	(main@delay_93+1)^(0+128),f
  1751     0AB4  0A5D               	incf	main@delay_93^(0+128),w
  1752     0AB5  1D03               	skipz
  1753     0AB6  2ABB               	goto	u5611
  1754     0AB7  0A5E               	incf	(main@delay_93+1)^(0+128),w
  1755     0AB8  1D03               	btfss	3,2
  1756     0AB9  2ABB               	goto	u5611
  1757     0ABA  2ABC               	goto	u5610
  1758     0ABB                     u5611:
  1759     0ABB  2AAE               	goto	l4206
  1760     0ABC                     u5610:
  1761     0ABC                     l4208:
  1762                           
  1763                           ;main.c: 43:         }
  1764     0ABC  0A5F               	incf	main@key^(0+128),w
  1765     0ABD  1D03               	btfss	3,2
  1766     0ABE  2AC0               	goto	u5621
  1767     0ABF  2AC1               	goto	u5620
  1768     0AC0                     u5621:
  1769     0AC0  2ACD               	goto	l4214
  1770     0AC1                     u5620:
  1771     0AC1                     l4210:
  1772     0AC1  1283               	bcf	3,5	;RP0=0, select bank0
  1773     0AC2  1303               	bcf	3,6	;RP1=0, select bank0
  1774     0AC3  036D               	decf	_operational_mode,w
  1775     0AC4  1D03               	btfss	3,2
  1776     0AC5  2AC7               	goto	u5631
  1777     0AC6  2AC8               	goto	u5630
  1778     0AC7                     u5631:
  1779     0AC7  2ACD               	goto	l4214
  1780     0AC8                     u5630:
  1781     0AC8                     l4212:
  1782                           
  1783                           ;main.c: 44:         else if (key == 0xFF && operational_mode == 0x02);main.c: 45:      
      +                             {
  1784     0AC8  3002               	movlw	2
  1785     0AC9  00ED               	movwf	_operational_mode
  1786                           
  1787                           ;main.c: 46:             operational_mode = 0x03;
  1788     0ACA  3022               	movlw	34
  1789     0ACB  00FB               	movwf	_reset_flag
  1790                           
  1791                           ;main.c: 48:             clcd_print("Press Switch",(0x80 + 0));
  1792     0ACC  2B5D               	goto	l4252
  1793     0ACD                     l4214:
  1794     0ACD  1683               	bsf	3,5	;RP0=1, select bank1
  1795     0ACE  1303               	bcf	3,6	;RP1=0, select bank1
  1796     0ACF  0A5F               	incf	main@key^(0+128),w
  1797     0AD0  1D03               	btfss	3,2
  1798     0AD1  2AD3               	goto	u5641
  1799     0AD2  2AD4               	goto	u5640
  1800     0AD3                     u5641:
  1801     0AD3  2B10               	goto	l4230
  1802     0AD4                     u5640:
  1803     0AD4                     l4216:
  1804     0AD4  3002               	movlw	2
  1805     0AD5  1283               	bcf	3,5	;RP0=0, select bank0
  1806     0AD6  1303               	bcf	3,6	;RP1=0, select bank0
  1807     0AD7  066D               	xorwf	_operational_mode,w
  1808     0AD8  1D03               	btfss	3,2
  1809     0AD9  2ADB               	goto	u5651
  1810     0ADA  2ADC               	goto	u5650
  1811     0ADB                     u5651:
  1812     0ADB  2B10               	goto	l4230
  1813     0ADC                     u5650:
  1814     0ADC                     l4218:
  1815                           
  1816                           ;main.c: 50:             clcd_print("SW6: STOP",(0x90 + 0));;main.c: 51:             set
      +                          _time();
  1817     0ADC  3003               	movlw	3
  1818     0ADD  00ED               	movwf	_operational_mode
  1819     0ADE                     l4220:
  1820                           
  1821                           ;main.c: 52: 
  1822     0ADE  160A  118A  2341  120A  158A  	fcall	_clear_screen
  1823     0AE3                     l4222:
  1824                           
  1825                           ;main.c: 53:         }
  1826     0AE3  3086               	movlw	low (STR_4| (0+32768))
  1827     0AE4  1283               	bcf	3,5	;RP0=0, select bank0
  1828     0AE5  1303               	bcf	3,6	;RP1=0, select bank0
  1829     0AE6  00A0               	movwf	clcd_print@str
  1830     0AE7  3090               	movlw	high (STR_4| (0+32768))
  1831     0AE8  00A1               	movwf	clcd_print@str+1
  1832     0AE9  3080               	movlw	128
  1833     0AEA  00A2               	movwf	clcd_print@addr
  1834     0AEB  120A  118A  27BE  120A  158A  	fcall	_clcd_print
  1835     0AF0                     l4224:
  1836                           
  1837                           ;main.c: 54:         else if(key == 0x2F && operational_mode == 0x44)
  1838     0AF0  30CB               	movlw	low (STR_5| (0+32768))
  1839     0AF1  1283               	bcf	3,5	;RP0=0, select bank0
  1840     0AF2  1303               	bcf	3,6	;RP1=0, select bank0
  1841     0AF3  00A0               	movwf	clcd_print@str
  1842     0AF4  3090               	movlw	high (STR_5| (0+32768))
  1843     0AF5  00A1               	movwf	clcd_print@str+1
  1844     0AF6  30C0               	movlw	192
  1845     0AF7  00A2               	movwf	clcd_print@addr
  1846     0AF8  120A  118A  27BE  120A  158A  	fcall	_clcd_print
  1847     0AFD                     l4226:
  1848                           
  1849                           ;main.c: 55:         {
  1850     0AFD  3012               	movlw	low (STR_6| (0+32768))
  1851     0AFE  1283               	bcf	3,5	;RP0=0, select bank0
  1852     0AFF  1303               	bcf	3,6	;RP1=0, select bank0
  1853     0B00  00A0               	movwf	clcd_print@str
  1854     0B01  3091               	movlw	high (STR_6| (0+32768))
  1855     0B02  00A1               	movwf	clcd_print@str+1
  1856     0B03  3090               	movlw	144
  1857     0B04  00A2               	movwf	clcd_print@addr
  1858     0B05  120A  118A  27BE  120A  158A  	fcall	_clcd_print
  1859     0B0A                     l4228:
  1860                           
  1861                           ;main.c: 56:             operational_mode = 0X04;
  1862     0B0A  120A  158A  2371  120A  158A  	fcall	_set_time
  1863                           
  1864                           ;main.c: 58:             RC2 = 1;
  1865     0B0F  2B5D               	goto	l4252
  1866     0B10                     l4230:
  1867     0B10  302F               	movlw	47
  1868     0B11  1683               	bsf	3,5	;RP0=1, select bank1
  1869     0B12  1303               	bcf	3,6	;RP1=0, select bank1
  1870     0B13  065F               	xorwf	main@key^(0+128),w
  1871     0B14  1D03               	btfss	3,2
  1872     0B15  2B17               	goto	u5661
  1873     0B16  2B18               	goto	u5660
  1874     0B17                     u5661:
  1875     0B17  2B25               	goto	l59
  1876     0B18                     u5660:
  1877     0B18                     l4232:
  1878     0B18  3044               	movlw	68
  1879     0B19  1283               	bcf	3,5	;RP0=0, select bank0
  1880     0B1A  1303               	bcf	3,6	;RP1=0, select bank0
  1881     0B1B  066D               	xorwf	_operational_mode,w
  1882     0B1C  1D03               	btfss	3,2
  1883     0B1D  2B1F               	goto	u5671
  1884     0B1E  2B20               	goto	u5670
  1885     0B1F                     u5671:
  1886     0B1F  2B25               	goto	l59
  1887     0B20                     u5670:
  1888     0B20                     l4234:
  1889                           
  1890                           ;main.c: 60: ;main.c: 61: 
  1891     0B20  3004               	movlw	4
  1892     0B21  00ED               	movwf	_operational_mode
  1893                           
  1894                           ;main.c: 62: 
  1895     0B22  1512               	bsf	18,2	;volatile
  1896                           
  1897                           ;main.c: 63:         switch(operational_mode)
  1898     0B23  1507               	bsf	7,2	;volatile
  1899     0B24  2B5D               	goto	l4252
  1900     0B25                     l59:
  1901                           
  1902                           ;main.c: 68: 
  1903     0B25  2B5D               	goto	l4252
  1904     0B26                     l4236:
  1905                           
  1906                           ;main.c: 71:                 break;
  1907     0B26  1683               	bsf	3,5	;RP0=1, select bank1
  1908     0B27  1303               	bcf	3,6	;RP1=0, select bank1
  1909     0B28  085F               	movf	main@key^(0+128),w
  1910     0B29  120A  158A  2148  120A  158A  	fcall	_washing_program_display
  1911                           
  1912                           ;main.c: 72: 
  1913     0B2E  2AA1               	goto	l4202
  1914     0B2F                     l4238:
  1915                           
  1916                           ;main.c: 75:                 if(key == 0x2F)
  1917     0B2F  1683               	bsf	3,5	;RP0=1, select bank1
  1918     0B30  1303               	bcf	3,6	;RP1=0, select bank1
  1919     0B31  085F               	movf	main@key^(0+128),w
  1920     0B32  160A  118A  26BD  120A  158A  	fcall	_water_level_screen
  1921                           
  1922                           ;main.c: 76:                 {
  1923     0B37  2AA1               	goto	l4202
  1924     0B38                     l4240:
  1925                           
  1926                           ;main.c: 79:                 };main.c: 80:                 else if(key == 0x1F)
  1927     0B38  302F               	movlw	47
  1928     0B39  1683               	bsf	3,5	;RP0=1, select bank1
  1929     0B3A  1303               	bcf	3,6	;RP1=0, select bank1
  1930     0B3B  065F               	xorwf	main@key^(0+128),w
  1931     0B3C  1D03               	btfss	3,2
  1932     0B3D  2B3F               	goto	u5681
  1933     0B3E  2B40               	goto	u5680
  1934     0B3F                     u5681:
  1935     0B3F  2B47               	goto	l4244
  1936     0B40                     u5680:
  1937     0B40                     l4242:
  1938                           
  1939                           ;main.c: 81:                 {;main.c: 82:                     operational_mode = 0x01;
  1940     0B40  3004               	movlw	4
  1941     0B41  1283               	bcf	3,5	;RP0=0, select bank0
  1942     0B42  1303               	bcf	3,6	;RP1=0, select bank0
  1943     0B43  00ED               	movwf	_operational_mode
  1944                           
  1945                           ;main.c: 83:                     reset_flag = 0x11;
  1946     0B44  3033               	movlw	51
  1947     0B45  00FB               	movwf	_reset_flag
  1948                           
  1949                           ;main.c: 84:                 }
  1950     0B46  2AA1               	goto	l4202
  1951     0B47                     l4244:
  1952     0B47  301F               	movlw	31
  1953     0B48  065F               	xorwf	main@key^(0+128),w
  1954     0B49  1D03               	btfss	3,2
  1955     0B4A  2B4C               	goto	u5691
  1956     0B4B  2B4D               	goto	u5690
  1957     0B4C                     u5691:
  1958     0B4C  2B6D               	goto	l65
  1959     0B4D                     u5690:
  1960     0B4D                     l4246:
  1961                           
  1962                           ;main.c: 86:             };main.c: 87:              break;
  1963     0B4D  3001               	movlw	1
  1964     0B4E  1283               	bcf	3,5	;RP0=0, select bank0
  1965     0B4F  1303               	bcf	3,6	;RP1=0, select bank0
  1966     0B50  00ED               	movwf	_operational_mode
  1967                           
  1968                           ;main.c: 88:             case 0X04:
  1969     0B51  3011               	movlw	17
  1970     0B52  00FB               	movwf	_reset_flag
  1971     0B53  2AA1               	goto	l4202
  1972     0B54                     l4248:
  1973                           
  1974                           ;main.c: 94: }
  1975     0B54  1683               	bsf	3,5	;RP0=1, select bank1
  1976     0B55  1303               	bcf	3,6	;RP1=0, select bank1
  1977     0B56  085F               	movf	main@key^(0+128),w
  1978     0B57  120A  118A  2045  120A  158A  	fcall	_run_program
  1979     0B5C  2AA1               	goto	l4202
  1980     0B5D                     l4252:
  1981     0B5D  1283               	bcf	3,5	;RP0=0, select bank0
  1982     0B5E  1303               	bcf	3,6	;RP1=0, select bank0
  1983     0B5F  086D               	movf	_operational_mode,w
  1984                           
  1985                           ; Switch size 1, requested type "simple"
  1986                           ; Number of cases is 4, Range of values is 1 to 4
  1987                           ; switch strategies available:
  1988                           ; Name         Instructions Cycles
  1989                           ; simple_byte           13     7 (average)
  1990                           ; direct_byte           23    11 (fixed)
  1991                           ; jumptable            263     9 (fixed)
  1992                           ;	Chosen strategy is simple_byte
  1993     0B60  3A01               	xorlw	1	; case 1
  1994     0B61  1903               	skipnz
  1995     0B62  2B26               	goto	l4236
  1996     0B63  3A03               	xorlw	3	; case 2
  1997     0B64  1903               	skipnz
  1998     0B65  2B2F               	goto	l4238
  1999     0B66  3A01               	xorlw	1	; case 3
  2000     0B67  1903               	skipnz
  2001     0B68  2B38               	goto	l4240
  2002     0B69  3A07               	xorlw	7	; case 4
  2003     0B6A  1903               	skipnz
  2004     0B6B  2B54               	goto	l4248
  2005     0B6C  2AA1               	goto	l4202
  2006     0B6D                     l65:
  2007     0B6D  2AA1               	goto	l4202
  2008     0B6E  120A  118A  280C   	ljmp	start
  2009     0B71                     __end_of_main:
  2010                           
  2011                           	psect	text1
  2012     16BD                     __ptext1:	
  2013 ;; *************** function _water_level_screen *****************
  2014 ;; Defined at:
  2015 ;;		line 78 in file "washing_machine_functions_def.c"
  2016 ;; Parameters:    Size  Location     Type
  2017 ;;  key             1    wreg     unsigned char 
  2018 ;; Auto vars:     Size  Location     Type
  2019 ;;  key             1    7[BANK0 ] unsigned char 
  2020 ;; Return value:  Size  Location     Type
  2021 ;;                  1    wreg      void 
  2022 ;; Registers used:
  2023 ;;		wreg, fsr0l, fsr0h, status,2, status,0, btemp+1, pclath, cstack
  2024 ;; Tracked objects:
  2025 ;;		On entry : 0/0
  2026 ;;		On exit  : 0/0
  2027 ;;		Unchanged: 0/0
  2028 ;; Data sizes:     COMMON   BANK0   BANK1   BANK3   BANK2
  2029 ;;      Params:         0       0       0       0       0
  2030 ;;      Locals:         0       1       0       0       0
  2031 ;;      Temps:          0       2       0       0       0
  2032 ;;      Totals:         0       3       0       0       0
  2033 ;;Total ram usage:        3 bytes
  2034 ;; Hardware stack levels used: 1
  2035 ;; Hardware stack levels required when called: 3
  2036 ;; This function calls:
  2037 ;;		___awmod
  2038 ;;		_clcd_print
  2039 ;;		_clcd_putch
  2040 ;;		_clear_screen
  2041 ;; This function is called by:
  2042 ;;		_main
  2043 ;; This function uses a non-reentrant model
  2044 ;;
  2045                           
  2046     16BD                     _water_level_screen:	
  2047                           ;psect for function _water_level_screen
  2048                           
  2049                           
  2050                           ;incstack = 0
  2051                           ; Regs used in _water_level_screen: [wreg-fsr0h+status,2+status,0+btemp+1+pclath+cstack]
  2052                           ;water_level_screen@key stored from wreg
  2053     16BD  1283               	bcf	3,5	;RP0=0, select bank0
  2054     16BE  1303               	bcf	3,6	;RP1=0, select bank0
  2055     16BF  00A7               	movwf	water_level_screen@key
  2056     16C0                     l3816:
  2057                           
  2058                           ;washing_machine_functions_def.c: 78: void water_level_screen(unsigned char key);washing
      +                          _machine_functions_def.c: 79: {;washing_machine_functions_def.c: 80:     if(reset_flag =
      +                          = 0x22)
  2059     16C0  3022               	movlw	34
  2060     16C1  067B               	xorwf	_reset_flag,w
  2061     16C2  1D03               	btfss	3,2
  2062     16C3  2EC5               	goto	u5151
  2063     16C4  2EC6               	goto	u5150
  2064     16C5                     u5151:
  2065     16C5  2ECD               	goto	l3822
  2066     16C6                     u5150:
  2067     16C6                     l3818:
  2068                           
  2069                           ;washing_machine_functions_def.c: 81:     {;washing_machine_functions_def.c: 82:     cle
      +                          ar_screen();
  2070     16C6  160A  118A  2341  160A  118A  	fcall	_clear_screen
  2071     16CB                     l3820:
  2072                           
  2073                           ;washing_machine_functions_def.c: 83:     reset_flag = 0xFF;
  2074     16CB  30FF               	movlw	255
  2075     16CC  00FB               	movwf	_reset_flag
  2076     16CD                     l3822:
  2077                           
  2078                           ;washing_machine_functions_def.c: 86:     if(key == 0x37)
  2079     16CD  3037               	movlw	55
  2080     16CE  1283               	bcf	3,5	;RP0=0, select bank0
  2081     16CF  1303               	bcf	3,6	;RP1=0, select bank0
  2082     16D0  0627               	xorwf	water_level_screen@key,w
  2083     16D1  1D03               	btfss	3,2
  2084     16D2  2ED4               	goto	u5161
  2085     16D3  2ED5               	goto	u5160
  2086     16D4                     u5161:
  2087     16D4  2EE5               	goto	l3832
  2088     16D5                     u5160:
  2089     16D5                     l3824:
  2090                           
  2091                           ;washing_machine_functions_def.c: 87:     {;washing_machine_functions_def.c: 88:        
      +                           clear_screen();
  2092     16D5  160A  118A  2341  160A  118A  	fcall	_clear_screen
  2093     16DA                     l3826:
  2094                           
  2095                           ;washing_machine_functions_def.c: 89:         level++;
  2096     16DA  3001               	movlw	1
  2097     16DB  1283               	bcf	3,5	;RP0=0, select bank0
  2098     16DC  1303               	bcf	3,6	;RP1=0, select bank0
  2099     16DD  07E9               	addwf	_level,f
  2100     16DE                     l3828:
  2101                           
  2102                           ;washing_machine_functions_def.c: 90:         if( level == 5)
  2103     16DE  3005               	movlw	5
  2104     16DF  0669               	xorwf	_level,w
  2105     16E0  1D03               	btfss	3,2
  2106     16E1  2EE3               	goto	u5171
  2107     16E2  2EE4               	goto	u5170
  2108     16E3                     u5171:
  2109     16E3  2EE5               	goto	l3832
  2110     16E4                     u5170:
  2111     16E4                     l3830:
  2112                           
  2113                           ;washing_machine_functions_def.c: 91:         {;washing_machine_functions_def.c: 92:    
      +                                   level = 0;
  2114     16E4  01E9               	clrf	_level
  2115     16E5                     l3832:
  2116                           
  2117                           ;washing_machine_functions_def.c: 95:     clcd_print("WATER_LEVEL:",(0x80 + 0));
  2118     16E5  306C               	movlw	low (STR_27| (0+32768))
  2119     16E6  00A0               	movwf	clcd_print@str
  2120     16E7  3090               	movlw	high (STR_27| (0+32768))
  2121     16E8  00A1               	movwf	clcd_print@str+1
  2122     16E9  3080               	movlw	128
  2123     16EA  00A2               	movwf	clcd_print@addr
  2124     16EB  120A  118A  27BE  160A  118A  	fcall	_clcd_print
  2125     16F0                     l3834:
  2126                           
  2127                           ;washing_machine_functions_def.c: 96:     clcd_putch('*',(0xC0 + 0));
  2128     16F0  30C0               	movlw	192
  2129     16F1  00F8               	movwf	clcd_putch@addr
  2130     16F2  302A               	movlw	42
  2131     16F3  160A  118A  2365  160A  118A  	fcall	_clcd_putch
  2132     16F8                     l3836:
  2133                           
  2134                           ;washing_machine_functions_def.c: 97:     clcd_print(water_level[level],(0xC0 + 2));
  2135     16F8  1283               	bcf	3,5	;RP0=0, select bank0
  2136     16F9  1303               	bcf	3,6	;RP1=0, select bank0
  2137     16FA  0869               	movf	_level,w
  2138     16FB  00A5               	movwf	??_water_level_screen
  2139     16FC  0725               	addwf	??_water_level_screen,w
  2140     16FD  3EB8               	addlw	(low (_water_level| 0))& (0+255)
  2141     16FE  0084               	movwf	4
  2142     16FF  1383               	bcf	3,7	;select IRP bank1
  2143     1700  0800               	movf	0,w
  2144     1701  00A0               	movwf	clcd_print@str
  2145     1702  0A84               	incf	4,f
  2146     1703  0800               	movf	0,w
  2147     1704  0384               	decf	4,f
  2148     1705  00A1               	movwf	clcd_print@str+1
  2149     1706  30C2               	movlw	194
  2150     1707  00A2               	movwf	clcd_print@addr
  2151     1708  120A  118A  27BE  160A  118A  	fcall	_clcd_print
  2152     170D                     l3838:
  2153                           
  2154                           ;washing_machine_functions_def.c: 98:     clcd_print(water_level[(level+1)%5],(0x90 + 2)
      +                          );
  2155     170D  3005               	movlw	5
  2156     170E  00F2               	movwf	___awmod@divisor
  2157     170F  3000               	movlw	0
  2158     1710  00F3               	movwf	___awmod@divisor+1
  2159     1711  1283               	bcf	3,5	;RP0=0, select bank0
  2160     1712  1303               	bcf	3,6	;RP1=0, select bank0
  2161     1713  0869               	movf	_level,w
  2162     1714  3E01               	addlw	1
  2163     1715  00F4               	movwf	___awmod@dividend
  2164     1716  3000               	movlw	0
  2165     1717  1803               	skipnc
  2166     1718  3001               	movlw	1
  2167     1719  00F5               	movwf	___awmod@dividend+1
  2168     171A  160A  118A  2526  160A  118A  	fcall	___awmod
  2169     171F  0872               	movf	?___awmod,w
  2170     1720  1283               	bcf	3,5	;RP0=0, select bank0
  2171     1721  1303               	bcf	3,6	;RP1=0, select bank0
  2172     1722  00A5               	movwf	??_water_level_screen
  2173     1723  0725               	addwf	??_water_level_screen,w
  2174     1724  3EB8               	addlw	(low (_water_level| 0))& (0+255)
  2175     1725  0084               	movwf	4
  2176     1726  1383               	bcf	3,7	;select IRP bank1
  2177     1727  0800               	movf	0,w
  2178     1728  00A0               	movwf	clcd_print@str
  2179     1729  0A84               	incf	4,f
  2180     172A  0800               	movf	0,w
  2181     172B  0384               	decf	4,f
  2182     172C  00A1               	movwf	clcd_print@str+1
  2183     172D  3092               	movlw	146
  2184     172E  00A2               	movwf	clcd_print@addr
  2185     172F  120A  118A  27BE  160A  118A  	fcall	_clcd_print
  2186     1734                     l3840:
  2187                           
  2188                           ;washing_machine_functions_def.c: 99:     clcd_print(water_level[(level+2)%5],(0xD0 + 2)
      +                          );
  2189     1734  3005               	movlw	5
  2190     1735  00F2               	movwf	___awmod@divisor
  2191     1736  3000               	movlw	0
  2192     1737  00F3               	movwf	___awmod@divisor+1
  2193     1738  1283               	bcf	3,5	;RP0=0, select bank0
  2194     1739  1303               	bcf	3,6	;RP1=0, select bank0
  2195     173A  0869               	movf	_level,w
  2196     173B  3E02               	addlw	2
  2197     173C  00F4               	movwf	___awmod@dividend
  2198     173D  3000               	movlw	0
  2199     173E  1803               	skipnc
  2200     173F  3001               	movlw	1
  2201     1740  00F5               	movwf	___awmod@dividend+1
  2202     1741  160A  118A  2526  160A  118A  	fcall	___awmod
  2203     1746  0872               	movf	?___awmod,w
  2204     1747  1283               	bcf	3,5	;RP0=0, select bank0
  2205     1748  1303               	bcf	3,6	;RP1=0, select bank0
  2206     1749  00A5               	movwf	??_water_level_screen
  2207     174A  0725               	addwf	??_water_level_screen,w
  2208     174B  3EB8               	addlw	(low (_water_level| 0))& (0+255)
  2209     174C  0084               	movwf	4
  2210     174D  1383               	bcf	3,7	;select IRP bank1
  2211     174E  0800               	movf	0,w
  2212     174F  00A0               	movwf	clcd_print@str
  2213     1750  0A84               	incf	4,f
  2214     1751  0800               	movf	0,w
  2215     1752  0384               	decf	4,f
  2216     1753  00A1               	movwf	clcd_print@str+1
  2217     1754  30D2               	movlw	210
  2218     1755  00A2               	movwf	clcd_print@addr
  2219     1756  120A  118A  27BE  160A  118A  	fcall	_clcd_print
  2220     175B                     l229:
  2221     175B  0008               	return
  2222     175C                     __end_of_water_level_screen:
  2223                           
  2224                           	psect	text2
  2225     0948                     __ptext2:	
  2226 ;; *************** function _washing_program_display *****************
  2227 ;; Defined at:
  2228 ;;		line 38 in file "washing_machine_functions_def.c"
  2229 ;; Parameters:    Size  Location     Type
  2230 ;;  key             1    wreg     unsigned char 
  2231 ;; Auto vars:     Size  Location     Type
  2232 ;;  key             1    7[BANK0 ] unsigned char 
  2233 ;; Return value:  Size  Location     Type
  2234 ;;                  1    wreg      void 
  2235 ;; Registers used:
  2236 ;;		wreg, fsr0l, fsr0h, status,2, status,0, btemp+1, pclath, cstack
  2237 ;; Tracked objects:
  2238 ;;		On entry : 0/0
  2239 ;;		On exit  : 0/0
  2240 ;;		Unchanged: 0/0
  2241 ;; Data sizes:     COMMON   BANK0   BANK1   BANK3   BANK2
  2242 ;;      Params:         0       0       0       0       0
  2243 ;;      Locals:         0       1       0       0       0
  2244 ;;      Temps:          0       2       0       0       0
  2245 ;;      Totals:         0       3       0       0       0
  2246 ;;Total ram usage:        3 bytes
  2247 ;; Hardware stack levels used: 1
  2248 ;; Hardware stack levels required when called: 3
  2249 ;; This function calls:
  2250 ;;		_clcd_print
  2251 ;;		_clcd_putch
  2252 ;;		_clear_screen
  2253 ;; This function is called by:
  2254 ;;		_main
  2255 ;; This function uses a non-reentrant model
  2256 ;;
  2257                           
  2258     0948                     _washing_program_display:	
  2259                           ;psect for function _washing_program_display
  2260                           
  2261                           
  2262                           ;incstack = 0
  2263                           ; Regs used in _washing_program_display: [wreg-fsr0h+status,2+status,0+btemp+1+pclath+cs
      +                          tack]
  2264                           ;washing_program_display@key stored from wreg
  2265     0948  1283               	bcf	3,5	;RP0=0, select bank0
  2266     0949  1303               	bcf	3,6	;RP1=0, select bank0
  2267     094A  00A7               	movwf	washing_program_display@key
  2268     094B                     l3784:
  2269                           
  2270                           ;washing_machine_functions_def.c: 38: void washing_program_display(unsigned char key);wa
      +                          shing_machine_functions_def.c: 39: {;washing_machine_functions_def.c: 40:     if( reset_
      +                          flag == 0x11 )
  2271     094B  3011               	movlw	17
  2272     094C  067B               	xorwf	_reset_flag,w
  2273     094D  1D03               	btfss	3,2
  2274     094E  2950               	goto	u5091
  2275     094F  2951               	goto	u5090
  2276     0950                     u5091:
  2277     0950  2958               	goto	l3790
  2278     0951                     u5090:
  2279     0951                     l3786:
  2280                           
  2281                           ;washing_machine_functions_def.c: 41:     {;washing_machine_functions_def.c: 42:        
      +                          clear_screen();
  2282     0951  160A  118A  2341  120A  158A  	fcall	_clear_screen
  2283     0956                     l3788:
  2284                           
  2285                           ;washing_machine_functions_def.c: 43:        reset_flag = 0xFF;
  2286     0956  30FF               	movlw	255
  2287     0957  00FB               	movwf	_reset_flag
  2288     0958                     l3790:
  2289                           
  2290                           ;washing_machine_functions_def.c: 46:     if(key == 0x37)
  2291     0958  3037               	movlw	55
  2292     0959  1283               	bcf	3,5	;RP0=0, select bank0
  2293     095A  1303               	bcf	3,6	;RP1=0, select bank0
  2294     095B  0627               	xorwf	washing_program_display@key,w
  2295     095C  1D03               	btfss	3,2
  2296     095D  295F               	goto	u5101
  2297     095E  2960               	goto	u5100
  2298     095F                     u5101:
  2299     095F  2970               	goto	l3800
  2300     0960                     u5100:
  2301     0960                     l3792:
  2302                           
  2303                           ;washing_machine_functions_def.c: 47:     {;washing_machine_functions_def.c: 48:        
      +                           clear_screen();
  2304     0960  160A  118A  2341  120A  158A  	fcall	_clear_screen
  2305     0965                     l3794:
  2306                           
  2307                           ;washing_machine_functions_def.c: 49:         program_no++;
  2308     0965  3001               	movlw	1
  2309     0966  1283               	bcf	3,5	;RP0=0, select bank0
  2310     0967  1303               	bcf	3,6	;RP1=0, select bank0
  2311     0968  07EA               	addwf	_program_no,f
  2312     0969                     l3796:
  2313                           
  2314                           ;washing_machine_functions_def.c: 50:         if(program_no == 12)
  2315     0969  300C               	movlw	12
  2316     096A  066A               	xorwf	_program_no,w
  2317     096B  1D03               	btfss	3,2
  2318     096C  296E               	goto	u5111
  2319     096D  296F               	goto	u5110
  2320     096E                     u5111:
  2321     096E  2970               	goto	l3800
  2322     096F                     u5110:
  2323     096F                     l3798:
  2324                           
  2325                           ;washing_machine_functions_def.c: 51:         {;washing_machine_functions_def.c: 52:    
      +                                   program_no = 0;
  2326     096F  01EA               	clrf	_program_no
  2327     0970                     l3800:
  2328                           
  2329                           ;washing_machine_functions_def.c: 56:     clcd_print("washing program",(0x80 + 0));
  2330     0970  3021               	movlw	low (STR_26| (0+32768))
  2331     0971  00A0               	movwf	clcd_print@str
  2332     0972  3090               	movlw	high (STR_26| (0+32768))
  2333     0973  00A1               	movwf	clcd_print@str+1
  2334     0974  3080               	movlw	128
  2335     0975  00A2               	movwf	clcd_print@addr
  2336     0976  120A  118A  27BE  120A  158A  	fcall	_clcd_print
  2337     097B                     l3802:
  2338                           
  2339                           ;washing_machine_functions_def.c: 57:     clcd_putch('*',(0xC0 + 0));
  2340     097B  30C0               	movlw	192
  2341     097C  00F8               	movwf	clcd_putch@addr
  2342     097D  302A               	movlw	42
  2343     097E  160A  118A  2365  120A  158A  	fcall	_clcd_putch
  2344     0983                     l3804:
  2345                           
  2346                           ;washing_machine_functions_def.c: 59:     if(program_no <= 9)
  2347     0983  300A               	movlw	10
  2348     0984  1283               	bcf	3,5	;RP0=0, select bank0
  2349     0985  1303               	bcf	3,6	;RP1=0, select bank0
  2350     0986  026A               	subwf	_program_no,w
  2351     0987  1803               	skipnc
  2352     0988  298A               	goto	u5121
  2353     0989  298B               	goto	u5120
  2354     098A                     u5121:
  2355     098A  29C9               	goto	l3808
  2356     098B                     u5120:
  2357     098B                     l3806:
  2358                           
  2359                           ;washing_machine_functions_def.c: 60:     {;washing_machine_functions_def.c: 61:        
      +                           clcd_print(washing_program[program_no],(0xC0 + 1));
  2360     098B  086A               	movf	_program_no,w
  2361     098C  00A5               	movwf	??_washing_program_display
  2362     098D  0725               	addwf	??_washing_program_display,w
  2363     098E  3EA0               	addlw	(low (_washing_program| 0))& (0+255)
  2364     098F  0084               	movwf	4
  2365     0990  1383               	bcf	3,7	;select IRP bank1
  2366     0991  0800               	movf	0,w
  2367     0992  00A0               	movwf	clcd_print@str
  2368     0993  0A84               	incf	4,f
  2369     0994  0800               	movf	0,w
  2370     0995  0384               	decf	4,f
  2371     0996  00A1               	movwf	clcd_print@str+1
  2372     0997  30C1               	movlw	193
  2373     0998  00A2               	movwf	clcd_print@addr
  2374     0999  120A  118A  27BE  120A  158A  	fcall	_clcd_print
  2375                           
  2376                           ;washing_machine_functions_def.c: 62:         clcd_print(washing_program[program_no+1],(
      +                          0x90 + 1));
  2377     099E  1283               	bcf	3,5	;RP0=0, select bank0
  2378     099F  1303               	bcf	3,6	;RP1=0, select bank0
  2379     09A0  086A               	movf	_program_no,w
  2380     09A1  00A5               	movwf	??_washing_program_display
  2381     09A2  0725               	addwf	??_washing_program_display,w
  2382     09A3  3EA2               	addlw	(low ((_washing_program| 0+2)))& (0+255)
  2383     09A4  0084               	movwf	4
  2384     09A5  1383               	bcf	3,7	;select IRP bank1
  2385     09A6  0800               	movf	0,w
  2386     09A7  00A0               	movwf	clcd_print@str
  2387     09A8  0A84               	incf	4,f
  2388     09A9  0800               	movf	0,w
  2389     09AA  0384               	decf	4,f
  2390     09AB  00A1               	movwf	clcd_print@str+1
  2391     09AC  3091               	movlw	145
  2392     09AD  00A2               	movwf	clcd_print@addr
  2393     09AE  120A  118A  27BE  120A  158A  	fcall	_clcd_print
  2394                           
  2395                           ;washing_machine_functions_def.c: 63:         clcd_print(washing_program[program_no+2],(
      +                          0xD0 + 1));
  2396     09B3  1283               	bcf	3,5	;RP0=0, select bank0
  2397     09B4  1303               	bcf	3,6	;RP1=0, select bank0
  2398     09B5  086A               	movf	_program_no,w
  2399     09B6  00A5               	movwf	??_washing_program_display
  2400     09B7  0725               	addwf	??_washing_program_display,w
  2401     09B8  3EA4               	addlw	(low ((_washing_program| 0+4)))& (0+255)
  2402     09B9  0084               	movwf	4
  2403     09BA  1383               	bcf	3,7	;select IRP bank1
  2404     09BB  0800               	movf	0,w
  2405     09BC  00A0               	movwf	clcd_print@str
  2406     09BD  0A84               	incf	4,f
  2407     09BE  0800               	movf	0,w
  2408     09BF  0384               	decf	4,f
  2409     09C0  00A1               	movwf	clcd_print@str+1
  2410     09C1  30D1               	movlw	209
  2411     09C2  00A2               	movwf	clcd_print@addr
  2412     09C3  120A  118A  27BE  120A  158A  	fcall	_clcd_print
  2413                           
  2414                           ;washing_machine_functions_def.c: 64:     }
  2415     09C8  2A4A               	goto	l223
  2416     09C9                     l3808:
  2417     09C9  300A               	movlw	10
  2418     09CA  066A               	xorwf	_program_no,w
  2419     09CB  1D03               	btfss	3,2
  2420     09CC  29CE               	goto	u5131
  2421     09CD  29CF               	goto	u5130
  2422     09CE                     u5131:
  2423     09CE  2A0B               	goto	l3812
  2424     09CF                     u5130:
  2425     09CF                     l3810:
  2426                           
  2427                           ;washing_machine_functions_def.c: 66:     {;washing_machine_functions_def.c: 67:        
      +                           clcd_print(washing_program[program_no],(0xC0 + 1));
  2428     09CF  086A               	movf	_program_no,w
  2429     09D0  00A5               	movwf	??_washing_program_display
  2430     09D1  0725               	addwf	??_washing_program_display,w
  2431     09D2  3EA0               	addlw	(low (_washing_program| 0))& (0+255)
  2432     09D3  0084               	movwf	4
  2433     09D4  1383               	bcf	3,7	;select IRP bank1
  2434     09D5  0800               	movf	0,w
  2435     09D6  00A0               	movwf	clcd_print@str
  2436     09D7  0A84               	incf	4,f
  2437     09D8  0800               	movf	0,w
  2438     09D9  0384               	decf	4,f
  2439     09DA  00A1               	movwf	clcd_print@str+1
  2440     09DB  30C1               	movlw	193
  2441     09DC  00A2               	movwf	clcd_print@addr
  2442     09DD  120A  118A  27BE  120A  158A  	fcall	_clcd_print
  2443                           
  2444                           ;washing_machine_functions_def.c: 68:         clcd_print(washing_program[program_no+1],(
      +                          0x90 + 1));
  2445     09E2  1283               	bcf	3,5	;RP0=0, select bank0
  2446     09E3  1303               	bcf	3,6	;RP1=0, select bank0
  2447     09E4  086A               	movf	_program_no,w
  2448     09E5  00A5               	movwf	??_washing_program_display
  2449     09E6  0725               	addwf	??_washing_program_display,w
  2450     09E7  3EA2               	addlw	(low ((_washing_program| 0+2)))& (0+255)
  2451     09E8  0084               	movwf	4
  2452     09E9  1383               	bcf	3,7	;select IRP bank1
  2453     09EA  0800               	movf	0,w
  2454     09EB  00A0               	movwf	clcd_print@str
  2455     09EC  0A84               	incf	4,f
  2456     09ED  0800               	movf	0,w
  2457     09EE  0384               	decf	4,f
  2458     09EF  00A1               	movwf	clcd_print@str+1
  2459     09F0  3091               	movlw	145
  2460     09F1  00A2               	movwf	clcd_print@addr
  2461     09F2  120A  118A  27BE  120A  158A  	fcall	_clcd_print
  2462                           
  2463                           ;washing_machine_functions_def.c: 69:         clcd_print(washing_program[0],(0xD0 + 1));
  2464     09F7  1683               	bsf	3,5	;RP0=1, select bank1
  2465     09F8  1303               	bcf	3,6	;RP1=0, select bank1
  2466     09F9  0820               	movf	_washing_program^(0+128),w
  2467     09FA  1283               	bcf	3,5	;RP0=0, select bank0
  2468     09FB  1303               	bcf	3,6	;RP1=0, select bank0
  2469     09FC  00A0               	movwf	clcd_print@str
  2470     09FD  1683               	bsf	3,5	;RP0=1, select bank1
  2471     09FE  1303               	bcf	3,6	;RP1=0, select bank1
  2472     09FF  0821               	movf	(_washing_program+1)^(0+128),w
  2473     0A00  1283               	bcf	3,5	;RP0=0, select bank0
  2474     0A01  1303               	bcf	3,6	;RP1=0, select bank0
  2475     0A02  00A1               	movwf	clcd_print@str+1
  2476     0A03  30D1               	movlw	209
  2477     0A04  00A2               	movwf	clcd_print@addr
  2478     0A05  120A  118A  27BE  120A  158A  	fcall	_clcd_print
  2479                           
  2480                           ;washing_machine_functions_def.c: 70:     }
  2481     0A0A  2A4A               	goto	l223
  2482     0A0B                     l3812:
  2483     0A0B  300B               	movlw	11
  2484     0A0C  066A               	xorwf	_program_no,w
  2485     0A0D  1D03               	btfss	3,2
  2486     0A0E  2A10               	goto	u5141
  2487     0A0F  2A11               	goto	u5140
  2488     0A10                     u5141:
  2489     0A10  2A4A               	goto	l223
  2490     0A11                     u5140:
  2491     0A11                     l3814:
  2492                           
  2493                           ;washing_machine_functions_def.c: 72:     {;washing_machine_functions_def.c: 73:        
      +                           clcd_print(washing_program[program_no],(0xC0 + 1));
  2494     0A11  086A               	movf	_program_no,w
  2495     0A12  00A5               	movwf	??_washing_program_display
  2496     0A13  0725               	addwf	??_washing_program_display,w
  2497     0A14  3EA0               	addlw	(low (_washing_program| 0))& (0+255)
  2498     0A15  0084               	movwf	4
  2499     0A16  1383               	bcf	3,7	;select IRP bank1
  2500     0A17  0800               	movf	0,w
  2501     0A18  00A0               	movwf	clcd_print@str
  2502     0A19  0A84               	incf	4,f
  2503     0A1A  0800               	movf	0,w
  2504     0A1B  0384               	decf	4,f
  2505     0A1C  00A1               	movwf	clcd_print@str+1
  2506     0A1D  30C1               	movlw	193
  2507     0A1E  00A2               	movwf	clcd_print@addr
  2508     0A1F  120A  118A  27BE  120A  158A  	fcall	_clcd_print
  2509                           
  2510                           ;washing_machine_functions_def.c: 74:         clcd_print(washing_program[0],(0x90 + 1));
  2511     0A24  1683               	bsf	3,5	;RP0=1, select bank1
  2512     0A25  1303               	bcf	3,6	;RP1=0, select bank1
  2513     0A26  0820               	movf	_washing_program^(0+128),w
  2514     0A27  1283               	bcf	3,5	;RP0=0, select bank0
  2515     0A28  1303               	bcf	3,6	;RP1=0, select bank0
  2516     0A29  00A0               	movwf	clcd_print@str
  2517     0A2A  1683               	bsf	3,5	;RP0=1, select bank1
  2518     0A2B  1303               	bcf	3,6	;RP1=0, select bank1
  2519     0A2C  0821               	movf	(_washing_program+1)^(0+128),w
  2520     0A2D  1283               	bcf	3,5	;RP0=0, select bank0
  2521     0A2E  1303               	bcf	3,6	;RP1=0, select bank0
  2522     0A2F  00A1               	movwf	clcd_print@str+1
  2523     0A30  3091               	movlw	145
  2524     0A31  00A2               	movwf	clcd_print@addr
  2525     0A32  120A  118A  27BE  120A  158A  	fcall	_clcd_print
  2526                           
  2527                           ;washing_machine_functions_def.c: 75:         clcd_print(washing_program[1],(0xD0 + 1));
  2528     0A37  1683               	bsf	3,5	;RP0=1, select bank1
  2529     0A38  1303               	bcf	3,6	;RP1=0, select bank1
  2530     0A39  0822               	movf	(low ((_washing_program| 0+2)))^(0+128),w
  2531     0A3A  1283               	bcf	3,5	;RP0=0, select bank0
  2532     0A3B  1303               	bcf	3,6	;RP1=0, select bank0
  2533     0A3C  00A0               	movwf	clcd_print@str
  2534     0A3D  1683               	bsf	3,5	;RP0=1, select bank1
  2535     0A3E  1303               	bcf	3,6	;RP1=0, select bank1
  2536     0A3F  0823               	movf	((low ((_washing_program| 0+2))+1))^(0+128),w
  2537     0A40  1283               	bcf	3,5	;RP0=0, select bank0
  2538     0A41  1303               	bcf	3,6	;RP1=0, select bank0
  2539     0A42  00A1               	movwf	clcd_print@str+1
  2540     0A43  30D1               	movlw	209
  2541     0A44  00A2               	movwf	clcd_print@addr
  2542     0A45  120A  118A  27BE  120A  158A  	fcall	_clcd_print
  2543     0A4A                     l223:
  2544     0A4A  0008               	return
  2545     0A4B                     __end_of_washing_program_display:
  2546                           
  2547                           	psect	text3
  2548     0B71                     __ptext3:	
  2549 ;; *************** function _set_time *****************
  2550 ;; Defined at:
  2551 ;;		line 197 in file "washing_machine_functions_def.c"
  2552 ;; Parameters:    Size  Location     Type
  2553 ;;		None
  2554 ;; Auto vars:     Size  Location     Type
  2555 ;;		None
  2556 ;; Return value:  Size  Location     Type
  2557 ;;                  1    wreg      void 
  2558 ;; Registers used:
  2559 ;;		wreg, fsr0l, fsr0h, status,2, status,0
  2560 ;; Tracked objects:
  2561 ;;		On entry : 0/0
  2562 ;;		On exit  : 0/0
  2563 ;;		Unchanged: 0/0
  2564 ;; Data sizes:     COMMON   BANK0   BANK1   BANK3   BANK2
  2565 ;;      Params:         0       0       0       0       0
  2566 ;;      Locals:         0       0       0       0       0
  2567 ;;      Temps:          0       0       0       0       0
  2568 ;;      Totals:         0       0       0       0       0
  2569 ;;Total ram usage:        0 bytes
  2570 ;; Hardware stack levels used: 1
  2571 ;; Hardware stack levels required when called: 1
  2572 ;; This function calls:
  2573 ;;		Nothing
  2574 ;; This function is called by:
  2575 ;;		_main
  2576 ;; This function uses a non-reentrant model
  2577 ;;
  2578                           
  2579     0B71                     _set_time:	
  2580                           ;psect for function _set_time
  2581                           
  2582     0B71                     l3654:	
  2583                           ;incstack = 0
  2584                           ; Regs used in _set_time: [wreg-fsr0h+status,2+status,0]
  2585                           
  2586                           
  2587                           ;washing_machine_functions_def.c: 199:     switch(program_no)
  2588     0B71  2C95               	goto	l3782
  2589     0B72                     l3656:
  2590                           
  2591                           ;washing_machine_functions_def.c: 207:                     min = 0;
  2592     0B72  01EB               	clrf	_min
  2593     0B73                     l3658:
  2594                           
  2595                           ;washing_machine_functions_def.c: 208:                     sec = 33;
  2596     0B73  3021               	movlw	33
  2597     0B74  00EC               	movwf	_sec
  2598                           
  2599                           ;washing_machine_functions_def.c: 209:                     break;
  2600     0B75  2CBD               	goto	l348
  2601     0B76                     l3660:
  2602                           
  2603                           ;washing_machine_functions_def.c: 212:                     min = 0;
  2604     0B76  01EB               	clrf	_min
  2605     0B77                     l3662:
  2606                           
  2607                           ;washing_machine_functions_def.c: 213:                     sec = 41;
  2608     0B77  3029               	movlw	41
  2609     0B78  00EC               	movwf	_sec
  2610                           
  2611                           ;washing_machine_functions_def.c: 214:                     break;
  2612     0B79  2CBD               	goto	l348
  2613     0B7A                     l3664:
  2614                           
  2615                           ;washing_machine_functions_def.c: 217:                     min = 0;
  2616     0B7A  01EB               	clrf	_min
  2617     0B7B                     l3666:
  2618                           
  2619                           ;washing_machine_functions_def.c: 218:                     sec = 45;
  2620     0B7B  302D               	movlw	45
  2621     0B7C  00EC               	movwf	_sec
  2622                           
  2623                           ;washing_machine_functions_def.c: 219:                     break;
  2624     0B7D  2CBD               	goto	l348
  2625     0B7E                     l3670:
  2626     0B7E  0869               	movf	_level,w
  2627                           
  2628                           ; Switch size 1, requested type "simple"
  2629                           ; Number of cases is 5, Range of values is 0 to 4
  2630                           ; switch strategies available:
  2631                           ; Name         Instructions Cycles
  2632                           ; simple_byte           16     9 (average)
  2633                           ; direct_byte           23     8 (fixed)
  2634                           ; jumptable            260     6 (fixed)
  2635                           ;	Chosen strategy is simple_byte
  2636     0B7F  3A00               	xorlw	0	; case 0
  2637     0B80  1903               	skipnz
  2638     0B81  2B76               	goto	l3660
  2639     0B82  3A01               	xorlw	1	; case 1
  2640     0B83  1903               	skipnz
  2641     0B84  2B72               	goto	l3656
  2642     0B85  3A03               	xorlw	3	; case 2
  2643     0B86  1903               	skipnz
  2644     0B87  2B76               	goto	l3660
  2645     0B88  3A01               	xorlw	1	; case 3
  2646     0B89  1903               	skipnz
  2647     0B8A  2B7A               	goto	l3664
  2648     0B8B  3A07               	xorlw	7	; case 4
  2649     0B8C  1903               	skipnz
  2650     0B8D  2B7A               	goto	l3664
  2651     0B8E  2CBD               	goto	l348
  2652     0B8F                     l3672:
  2653                           
  2654                           ;washing_machine_functions_def.c: 226:                     min = 0;
  2655     0B8F  01EB               	clrf	_min
  2656     0B90                     l3674:
  2657                           
  2658                           ;washing_machine_functions_def.c: 227:                     sec = 43;
  2659     0B90  302B               	movlw	43
  2660     0B91  00EC               	movwf	_sec
  2661                           
  2662                           ;washing_machine_functions_def.c: 228:                     break;
  2663     0B92  2CBD               	goto	l348
  2664     0B93                     l3676:
  2665                           
  2666                           ;washing_machine_functions_def.c: 231:                     min = 0;
  2667     0B93  01EB               	clrf	_min
  2668     0B94                     l3678:
  2669                           
  2670                           ;washing_machine_functions_def.c: 232:                     sec = 50;
  2671     0B94  3032               	movlw	50
  2672     0B95  00EC               	movwf	_sec
  2673                           
  2674                           ;washing_machine_functions_def.c: 233:                     break;
  2675     0B96  2CBD               	goto	l348
  2676     0B97                     l3680:
  2677                           
  2678                           ;washing_machine_functions_def.c: 236:                     min = 0;
  2679     0B97  01EB               	clrf	_min
  2680     0B98                     l3682:
  2681                           
  2682                           ;washing_machine_functions_def.c: 237:                     sec = 57;
  2683     0B98  3039               	movlw	57
  2684     0B99  00EC               	movwf	_sec
  2685                           
  2686                           ;washing_machine_functions_def.c: 238:                     break;
  2687     0B9A  2CBD               	goto	l348
  2688     0B9B                     l3686:
  2689     0B9B  0869               	movf	_level,w
  2690                           
  2691                           ; Switch size 1, requested type "simple"
  2692                           ; Number of cases is 5, Range of values is 0 to 4
  2693                           ; switch strategies available:
  2694                           ; Name         Instructions Cycles
  2695                           ; simple_byte           16     9 (average)
  2696                           ; direct_byte           23     8 (fixed)
  2697                           ; jumptable            260     6 (fixed)
  2698                           ;	Chosen strategy is simple_byte
  2699     0B9C  3A00               	xorlw	0	; case 0
  2700     0B9D  1903               	skipnz
  2701     0B9E  2B93               	goto	l3676
  2702     0B9F  3A01               	xorlw	1	; case 1
  2703     0BA0  1903               	skipnz
  2704     0BA1  2B8F               	goto	l3672
  2705     0BA2  3A03               	xorlw	3	; case 2
  2706     0BA3  1903               	skipnz
  2707     0BA4  2B93               	goto	l3676
  2708     0BA5  3A01               	xorlw	1	; case 3
  2709     0BA6  1903               	skipnz
  2710     0BA7  2B97               	goto	l3680
  2711     0BA8  3A07               	xorlw	7	; case 4
  2712     0BA9  1903               	skipnz
  2713     0BAA  2B97               	goto	l3680
  2714     0BAB  2CBD               	goto	l348
  2715     0BAC                     l3688:
  2716                           
  2717                           ;washing_machine_functions_def.c: 249:                     min = 0;
  2718     0BAC  01EB               	clrf	_min
  2719     0BAD                     l3690:
  2720                           
  2721                           ;washing_machine_functions_def.c: 250:                     sec = 26;
  2722     0BAD  301A               	movlw	26
  2723     0BAE  00EC               	movwf	_sec
  2724                           
  2725                           ;washing_machine_functions_def.c: 251:                     break;
  2726     0BAF  2CBD               	goto	l348
  2727     0BB0                     l3692:
  2728                           
  2729                           ;washing_machine_functions_def.c: 254:                     min = 0;
  2730     0BB0  01EB               	clrf	_min
  2731     0BB1                     l3694:
  2732                           
  2733                           ;washing_machine_functions_def.c: 255:                     sec = 31;
  2734     0BB1  301F               	movlw	31
  2735     0BB2  00EC               	movwf	_sec
  2736                           
  2737                           ;washing_machine_functions_def.c: 256:                     break;
  2738     0BB3  2CBD               	goto	l348
  2739     0BB4                     l3698:
  2740     0BB4  0869               	movf	_level,w
  2741                           
  2742                           ; Switch size 1, requested type "simple"
  2743                           ; Number of cases is 5, Range of values is 0 to 4
  2744                           ; switch strategies available:
  2745                           ; Name         Instructions Cycles
  2746                           ; simple_byte           16     9 (average)
  2747                           ; direct_byte           23     8 (fixed)
  2748                           ; jumptable            260     6 (fixed)
  2749                           ;	Chosen strategy is simple_byte
  2750     0BB5  3A00               	xorlw	0	; case 0
  2751     0BB6  1903               	skipnz
  2752     0BB7  2BAC               	goto	l3688
  2753     0BB8  3A01               	xorlw	1	; case 1
  2754     0BB9  1903               	skipnz
  2755     0BBA  2BAC               	goto	l3688
  2756     0BBB  3A03               	xorlw	3	; case 2
  2757     0BBC  1903               	skipnz
  2758     0BBD  2BAC               	goto	l3688
  2759     0BBE  3A01               	xorlw	1	; case 3
  2760     0BBF  1903               	skipnz
  2761     0BC0  2BB0               	goto	l3692
  2762     0BC1  3A07               	xorlw	7	; case 4
  2763     0BC2  1903               	skipnz
  2764     0BC3  2BB0               	goto	l3692
  2765     0BC4  2CBD               	goto	l348
  2766     0BC5                     l280:	
  2767                           ;washing_machine_functions_def.c: 266:                 case 2:
  2768                           
  2769     0BC5                     l282:	
  2770                           ;washing_machine_functions_def.c: 268:                 case 4:
  2771                           
  2772                           
  2773                           ;washing_machine_functions_def.c: 269:                     min = 1;
  2774     0BC5  3001               	movlw	1
  2775     0BC6  00EB               	movwf	_min
  2776                           
  2777                           ;washing_machine_functions_def.c: 270:                     sec = 16;
  2778     0BC7  3010               	movlw	16
  2779     0BC8  00EC               	movwf	_sec
  2780                           
  2781                           ;washing_machine_functions_def.c: 271:                     break;
  2782     0BC9  2CBD               	goto	l348
  2783     0BCA                     l3702:
  2784     0BCA  0869               	movf	_level,w
  2785                           
  2786                           ; Switch size 1, requested type "simple"
  2787                           ; Number of cases is 5, Range of values is 0 to 4
  2788                           ; switch strategies available:
  2789                           ; Name         Instructions Cycles
  2790                           ; simple_byte           16     9 (average)
  2791                           ; direct_byte           23     8 (fixed)
  2792                           ; jumptable            260     6 (fixed)
  2793                           ;	Chosen strategy is simple_byte
  2794     0BCB  3A00               	xorlw	0	; case 0
  2795     0BCC  1903               	skipnz
  2796     0BCD  2BC5               	goto	l282
  2797     0BCE  3A01               	xorlw	1	; case 1
  2798     0BCF  1903               	skipnz
  2799     0BD0  2BC5               	goto	l280
  2800     0BD1  3A03               	xorlw	3	; case 2
  2801     0BD2  1903               	skipnz
  2802     0BD3  2BC5               	goto	l282
  2803     0BD4  3A01               	xorlw	1	; case 3
  2804     0BD5  1903               	skipnz
  2805     0BD6  2BC5               	goto	l282
  2806     0BD7  3A07               	xorlw	7	; case 4
  2807     0BD8  1903               	skipnz
  2808     0BD9  2BC5               	goto	l282
  2809     0BDA  2CBD               	goto	l348
  2810     0BDB                     l288:	
  2811                           ;washing_machine_functions_def.c: 279:                 case 2:
  2812                           
  2813     0BDB                     l290:	
  2814                           ;washing_machine_functions_def.c: 281:                 case 4:
  2815                           
  2816                           
  2817                           ;washing_machine_functions_def.c: 282:                     min = 1;
  2818     0BDB  3001               	movlw	1
  2819     0BDC  00EB               	movwf	_min
  2820                           
  2821                           ;washing_machine_functions_def.c: 283:                     sec = 36;
  2822     0BDD  3024               	movlw	36
  2823     0BDE  00EC               	movwf	_sec
  2824                           
  2825                           ;washing_machine_functions_def.c: 284:                     break;
  2826     0BDF  2CBD               	goto	l348
  2827     0BE0                     l3706:
  2828     0BE0  0869               	movf	_level,w
  2829                           
  2830                           ; Switch size 1, requested type "simple"
  2831                           ; Number of cases is 5, Range of values is 0 to 4
  2832                           ; switch strategies available:
  2833                           ; Name         Instructions Cycles
  2834                           ; simple_byte           16     9 (average)
  2835                           ; direct_byte           23     8 (fixed)
  2836                           ; jumptable            260     6 (fixed)
  2837                           ;	Chosen strategy is simple_byte
  2838     0BE1  3A00               	xorlw	0	; case 0
  2839     0BE2  1903               	skipnz
  2840     0BE3  2BDB               	goto	l290
  2841     0BE4  3A01               	xorlw	1	; case 1
  2842     0BE5  1903               	skipnz
  2843     0BE6  2BDB               	goto	l288
  2844     0BE7  3A03               	xorlw	3	; case 2
  2845     0BE8  1903               	skipnz
  2846     0BE9  2BDB               	goto	l290
  2847     0BEA  3A01               	xorlw	1	; case 3
  2848     0BEB  1903               	skipnz
  2849     0BEC  2BDB               	goto	l290
  2850     0BED  3A07               	xorlw	7	; case 4
  2851     0BEE  1903               	skipnz
  2852     0BEF  2BDB               	goto	l290
  2853     0BF0  2CBD               	goto	l348
  2854     0BF1                     l3708:
  2855                           
  2856                           ;washing_machine_functions_def.c: 293:                     min = 0;
  2857     0BF1  01EB               	clrf	_min
  2858     0BF2                     l3710:
  2859                           
  2860                           ;washing_machine_functions_def.c: 294:                     sec = 31;
  2861     0BF2  301F               	movlw	31
  2862     0BF3  00EC               	movwf	_sec
  2863     0BF4                     l298:	
  2864                           ;washing_machine_functions_def.c: 296:                 case 4:
  2865                           
  2866                           
  2867                           ;washing_machine_functions_def.c: 297:                     min = 0;
  2868     0BF4  01EB               	clrf	_min
  2869     0BF5                     l3712:
  2870                           
  2871                           ;washing_machine_functions_def.c: 298:                     sec = 36;
  2872     0BF5  3024               	movlw	36
  2873     0BF6  00EC               	movwf	_sec
  2874                           
  2875                           ;washing_machine_functions_def.c: 299:                     break;
  2876     0BF7  2CBD               	goto	l348
  2877     0BF8                     l3716:
  2878     0BF8  0869               	movf	_level,w
  2879                           
  2880                           ; Switch size 1, requested type "simple"
  2881                           ; Number of cases is 5, Range of values is 0 to 4
  2882                           ; switch strategies available:
  2883                           ; Name         Instructions Cycles
  2884                           ; simple_byte           16     9 (average)
  2885                           ; direct_byte           23     8 (fixed)
  2886                           ; jumptable            260     6 (fixed)
  2887                           ;	Chosen strategy is simple_byte
  2888     0BF9  3A00               	xorlw	0	; case 0
  2889     0BFA  1903               	skipnz
  2890     0BFB  2BF1               	goto	l3708
  2891     0BFC  3A01               	xorlw	1	; case 1
  2892     0BFD  1903               	skipnz
  2893     0BFE  2BF1               	goto	l3708
  2894     0BFF  3A03               	xorlw	3	; case 2
  2895     0C00  1903               	skipnz
  2896     0C01  2BF1               	goto	l3708
  2897     0C02  3A01               	xorlw	1	; case 3
  2898     0C03  1903               	skipnz
  2899     0C04  2BF4               	goto	l298
  2900     0C05  3A07               	xorlw	7	; case 4
  2901     0C06  1903               	skipnz
  2902     0C07  2BF4               	goto	l298
  2903     0C08  2CBD               	goto	l348
  2904     0C09                     l305:	
  2905                           ;washing_machine_functions_def.c: 308:                 case 3:
  2906                           
  2907     0C09                     l3718:
  2908                           
  2909                           ;washing_machine_functions_def.c: 310:                     min = 0;
  2910     0C09  01EB               	clrf	_min
  2911     0C0A                     l3720:
  2912                           
  2913                           ;washing_machine_functions_def.c: 311:                     sec = 29;
  2914     0C0A  301D               	movlw	29
  2915     0C0B  00EC               	movwf	_sec
  2916                           
  2917                           ;washing_machine_functions_def.c: 312:                     break;
  2918     0C0C  2CBD               	goto	l348
  2919     0C0D                     l3724:
  2920     0C0D  0869               	movf	_level,w
  2921                           
  2922                           ; Switch size 1, requested type "simple"
  2923                           ; Number of cases is 5, Range of values is 0 to 4
  2924                           ; switch strategies available:
  2925                           ; Name         Instructions Cycles
  2926                           ; simple_byte           16     9 (average)
  2927                           ; direct_byte           23     8 (fixed)
  2928                           ; jumptable            260     6 (fixed)
  2929                           ;	Chosen strategy is simple_byte
  2930     0C0E  3A00               	xorlw	0	; case 0
  2931     0C0F  1903               	skipnz
  2932     0C10  2C09               	goto	l3718
  2933     0C11  3A01               	xorlw	1	; case 1
  2934     0C12  1903               	skipnz
  2935     0C13  2C09               	goto	l305
  2936     0C14  3A03               	xorlw	3	; case 2
  2937     0C15  1903               	skipnz
  2938     0C16  2C09               	goto	l3718
  2939     0C17  3A01               	xorlw	1	; case 3
  2940     0C18  1903               	skipnz
  2941     0C19  2C09               	goto	l3718
  2942     0C1A  3A07               	xorlw	7	; case 4
  2943     0C1B  1903               	skipnz
  2944     0C1C  2C09               	goto	l3718
  2945     0C1D  2CBD               	goto	l348
  2946     0C1E                     l3726:
  2947                           
  2948                           ;washing_machine_functions_def.c: 319:                     min = 0;
  2949     0C1E  01EB               	clrf	_min
  2950     0C1F                     l3728:
  2951                           
  2952                           ;washing_machine_functions_def.c: 320:                     sec = 46;
  2953     0C1F  302E               	movlw	46
  2954     0C20  00EC               	movwf	_sec
  2955     0C21                     l312:	
  2956                           ;washing_machine_functions_def.c: 322:                 case 2:
  2957                           
  2958                           
  2959                           ;washing_machine_functions_def.c: 323:                     min = 0;
  2960     0C21  01EB               	clrf	_min
  2961     0C22                     l3730:
  2962                           
  2963                           ;washing_machine_functions_def.c: 324:                     sec = 53;
  2964     0C22  3035               	movlw	53
  2965     0C23  00EC               	movwf	_sec
  2966                           
  2967                           ;washing_machine_functions_def.c: 325:                     break;
  2968     0C24  2CBD               	goto	l348
  2969     0C25                     l315:	
  2970                           ;washing_machine_functions_def.c: 327:                 case 4:
  2971                           
  2972                           
  2973                           ;washing_machine_functions_def.c: 328:                     min = 1;
  2974     0C25  3001               	movlw	1
  2975     0C26  00EB               	movwf	_min
  2976     0C27                     l3732:
  2977                           
  2978                           ;washing_machine_functions_def.c: 329:                     sec = 0;
  2979     0C27  01EC               	clrf	_sec
  2980                           
  2981                           ;washing_machine_functions_def.c: 330:                     break;
  2982     0C28  2CBD               	goto	l348
  2983     0C29                     l3736:
  2984     0C29  0869               	movf	_level,w
  2985                           
  2986                           ; Switch size 1, requested type "simple"
  2987                           ; Number of cases is 5, Range of values is 0 to 4
  2988                           ; switch strategies available:
  2989                           ; Name         Instructions Cycles
  2990                           ; simple_byte           16     9 (average)
  2991                           ; direct_byte           23     8 (fixed)
  2992                           ; jumptable            260     6 (fixed)
  2993                           ;	Chosen strategy is simple_byte
  2994     0C2A  3A00               	xorlw	0	; case 0
  2995     0C2B  1903               	skipnz
  2996     0C2C  2C21               	goto	l312
  2997     0C2D  3A01               	xorlw	1	; case 1
  2998     0C2E  1903               	skipnz
  2999     0C2F  2C1E               	goto	l3726
  3000     0C30  3A03               	xorlw	3	; case 2
  3001     0C31  1903               	skipnz
  3002     0C32  2C21               	goto	l312
  3003     0C33  3A01               	xorlw	1	; case 3
  3004     0C34  1903               	skipnz
  3005     0C35  2C25               	goto	l315
  3006     0C36  3A07               	xorlw	7	; case 4
  3007     0C37  1903               	skipnz
  3008     0C38  2C25               	goto	l315
  3009     0C39  2CBD               	goto	l348
  3010     0C3A                     l3738:
  3011                           
  3012                           ;washing_machine_functions_def.c: 337:                     min = 0;
  3013     0C3A  01EB               	clrf	_min
  3014     0C3B                     l3740:
  3015                           
  3016                           ;washing_machine_functions_def.c: 338:                     sec = 18;
  3017     0C3B  3012               	movlw	18
  3018     0C3C  00EC               	movwf	_sec
  3019     0C3D                     l322:	
  3020                           ;washing_machine_functions_def.c: 342:                 case 4:
  3021                           
  3022                           
  3023                           ;washing_machine_functions_def.c: 343:                     min = 0;
  3024     0C3D  01EB               	clrf	_min
  3025     0C3E                     l3742:
  3026                           
  3027                           ;washing_machine_functions_def.c: 344:                     sec = 20;
  3028     0C3E  3014               	movlw	20
  3029     0C3F  00EC               	movwf	_sec
  3030                           
  3031                           ;washing_machine_functions_def.c: 345:                     break;
  3032     0C40  2CBD               	goto	l348
  3033     0C41                     l3746:
  3034     0C41  0869               	movf	_level,w
  3035                           
  3036                           ; Switch size 1, requested type "simple"
  3037                           ; Number of cases is 5, Range of values is 0 to 4
  3038                           ; switch strategies available:
  3039                           ; Name         Instructions Cycles
  3040                           ; simple_byte           16     9 (average)
  3041                           ; direct_byte           23     8 (fixed)
  3042                           ; jumptable            260     6 (fixed)
  3043                           ;	Chosen strategy is simple_byte
  3044     0C42  3A00               	xorlw	0	; case 0
  3045     0C43  1903               	skipnz
  3046     0C44  2C3D               	goto	l322
  3047     0C45  3A01               	xorlw	1	; case 1
  3048     0C46  1903               	skipnz
  3049     0C47  2C3A               	goto	l3738
  3050     0C48  3A03               	xorlw	3	; case 2
  3051     0C49  1903               	skipnz
  3052     0C4A  2C3D               	goto	l322
  3053     0C4B  3A01               	xorlw	1	; case 3
  3054     0C4C  1903               	skipnz
  3055     0C4D  2C3D               	goto	l322
  3056     0C4E  3A07               	xorlw	7	; case 4
  3057     0C4F  1903               	skipnz
  3058     0C50  2C3D               	goto	l322
  3059     0C51  2CBD               	goto	l348
  3060     0C52                     l329:	
  3061                           ;washing_machine_functions_def.c: 354:                 case 3:
  3062                           
  3063     0C52                     l3748:
  3064                           
  3065                           ;washing_machine_functions_def.c: 356:                     min = 0;
  3066     0C52  01EB               	clrf	_min
  3067     0C53                     l3750:
  3068                           
  3069                           ;washing_machine_functions_def.c: 357:                     sec = 6;
  3070     0C53  3006               	movlw	6
  3071     0C54  00EC               	movwf	_sec
  3072                           
  3073                           ;washing_machine_functions_def.c: 358:                     break;
  3074     0C55  2CBD               	goto	l348
  3075     0C56                     l3754:
  3076     0C56  0869               	movf	_level,w
  3077                           
  3078                           ; Switch size 1, requested type "simple"
  3079                           ; Number of cases is 5, Range of values is 0 to 4
  3080                           ; switch strategies available:
  3081                           ; Name         Instructions Cycles
  3082                           ; simple_byte           16     9 (average)
  3083                           ; direct_byte           23     8 (fixed)
  3084                           ; jumptable            260     6 (fixed)
  3085                           ;	Chosen strategy is simple_byte
  3086     0C57  3A00               	xorlw	0	; case 0
  3087     0C58  1903               	skipnz
  3088     0C59  2C52               	goto	l3748
  3089     0C5A  3A01               	xorlw	1	; case 1
  3090     0C5B  1903               	skipnz
  3091     0C5C  2C52               	goto	l329
  3092     0C5D  3A03               	xorlw	3	; case 2
  3093     0C5E  1903               	skipnz
  3094     0C5F  2C52               	goto	l3748
  3095     0C60  3A01               	xorlw	1	; case 3
  3096     0C61  1903               	skipnz
  3097     0C62  2C52               	goto	l3748
  3098     0C63  3A07               	xorlw	7	; case 4
  3099     0C64  1903               	skipnz
  3100     0C65  2C52               	goto	l3748
  3101     0C66  2CBD               	goto	l348
  3102     0C67                     l3756:
  3103                           
  3104                           ;washing_machine_functions_def.c: 365:                     min = 0;
  3105     0C67  01EB               	clrf	_min
  3106     0C68                     l3758:
  3107                           
  3108                           ;washing_machine_functions_def.c: 366:                     sec = 16;
  3109     0C68  3010               	movlw	16
  3110     0C69  00EC               	movwf	_sec
  3111                           
  3112                           ;washing_machine_functions_def.c: 367:                     break;
  3113     0C6A  2CBD               	goto	l348
  3114     0C6B                     l3760:
  3115                           
  3116                           ;washing_machine_functions_def.c: 370:                     min = 0;
  3117     0C6B  01EB               	clrf	_min
  3118     0C6C                     l3762:
  3119                           
  3120                           ;washing_machine_functions_def.c: 371:                     sec = 21;
  3121     0C6C  3015               	movlw	21
  3122     0C6D  00EC               	movwf	_sec
  3123                           
  3124                           ;washing_machine_functions_def.c: 372:                     break;
  3125     0C6E  2CBD               	goto	l348
  3126     0C6F                     l3770:
  3127     0C6F  0869               	movf	_level,w
  3128                           
  3129                           ; Switch size 1, requested type "simple"
  3130                           ; Number of cases is 5, Range of values is 0 to 4
  3131                           ; switch strategies available:
  3132                           ; Name         Instructions Cycles
  3133                           ; simple_byte           16     9 (average)
  3134                           ; direct_byte           23     8 (fixed)
  3135                           ; jumptable            260     6 (fixed)
  3136                           ;	Chosen strategy is simple_byte
  3137     0C70  3A00               	xorlw	0	; case 0
  3138     0C71  1903               	skipnz
  3139     0C72  2C6B               	goto	l3760
  3140     0C73  3A01               	xorlw	1	; case 1
  3141     0C74  1903               	skipnz
  3142     0C75  2C67               	goto	l3756
  3143     0C76  3A03               	xorlw	3	; case 2
  3144     0C77  1903               	skipnz
  3145     0C78  2C6B               	goto	l3760
  3146     0C79  3A01               	xorlw	1	; case 3
  3147     0C7A  1903               	skipnz
  3148     0C7B  2BAC               	goto	l3688
  3149     0C7C  3A07               	xorlw	7	; case 4
  3150     0C7D  1903               	skipnz
  3151     0C7E  2BAC               	goto	l3688
  3152     0C7F  2CBD               	goto	l348
  3153     0C80                     l345:	
  3154                           ;washing_machine_functions_def.c: 386:                 case 3:
  3155                           
  3156     0C80                     l3772:
  3157                           
  3158                           ;washing_machine_functions_def.c: 388:                     min = 0;
  3159     0C80  01EB               	clrf	_min
  3160     0C81                     l3774:
  3161                           
  3162                           ;washing_machine_functions_def.c: 389:                     sec = 56;
  3163     0C81  3038               	movlw	56
  3164     0C82  00EC               	movwf	_sec
  3165                           
  3166                           ;washing_machine_functions_def.c: 390:                     break;
  3167     0C83  2CBD               	goto	l348
  3168     0C84                     l3778:
  3169     0C84  0869               	movf	_level,w
  3170                           
  3171                           ; Switch size 1, requested type "simple"
  3172                           ; Number of cases is 5, Range of values is 0 to 4
  3173                           ; switch strategies available:
  3174                           ; Name         Instructions Cycles
  3175                           ; simple_byte           16     9 (average)
  3176                           ; direct_byte           23     8 (fixed)
  3177                           ; jumptable            260     6 (fixed)
  3178                           ;	Chosen strategy is simple_byte
  3179     0C85  3A00               	xorlw	0	; case 0
  3180     0C86  1903               	skipnz
  3181     0C87  2C80               	goto	l3772
  3182     0C88  3A01               	xorlw	1	; case 1
  3183     0C89  1903               	skipnz
  3184     0C8A  2C80               	goto	l345
  3185     0C8B  3A03               	xorlw	3	; case 2
  3186     0C8C  1903               	skipnz
  3187     0C8D  2C80               	goto	l3772
  3188     0C8E  3A01               	xorlw	1	; case 3
  3189     0C8F  1903               	skipnz
  3190     0C90  2C80               	goto	l3772
  3191     0C91  3A07               	xorlw	7	; case 4
  3192     0C92  1903               	skipnz
  3193     0C93  2C80               	goto	l3772
  3194     0C94  2CBD               	goto	l348
  3195     0C95                     l3782:
  3196     0C95  1283               	bcf	3,5	;RP0=0, select bank0
  3197     0C96  1303               	bcf	3,6	;RP1=0, select bank0
  3198     0C97  086A               	movf	_program_no,w
  3199                           
  3200                           ; Switch size 1, requested type "simple"
  3201                           ; Number of cases is 12, Range of values is 0 to 11
  3202                           ; switch strategies available:
  3203                           ; Name         Instructions Cycles
  3204                           ; simple_byte           37    19 (average)
  3205                           ; direct_byte           44     8 (fixed)
  3206                           ; jumptable            260     6 (fixed)
  3207                           ;	Chosen strategy is simple_byte
  3208     0C98  3A00               	xorlw	0	; case 0
  3209     0C99  1903               	skipnz
  3210     0C9A  2B7E               	goto	l3670
  3211     0C9B  3A01               	xorlw	1	; case 1
  3212     0C9C  1903               	skipnz
  3213     0C9D  2B9B               	goto	l3686
  3214     0C9E  3A03               	xorlw	3	; case 2
  3215     0C9F  1903               	skipnz
  3216     0CA0  2BB4               	goto	l3698
  3217     0CA1  3A01               	xorlw	1	; case 3
  3218     0CA2  1903               	skipnz
  3219     0CA3  2BCA               	goto	l3702
  3220     0CA4  3A07               	xorlw	7	; case 4
  3221     0CA5  1903               	skipnz
  3222     0CA6  2BE0               	goto	l3706
  3223     0CA7  3A01               	xorlw	1	; case 5
  3224     0CA8  1903               	skipnz
  3225     0CA9  2BF8               	goto	l3716
  3226     0CAA  3A03               	xorlw	3	; case 6
  3227     0CAB  1903               	skipnz
  3228     0CAC  2C0D               	goto	l3724
  3229     0CAD  3A01               	xorlw	1	; case 7
  3230     0CAE  1903               	skipnz
  3231     0CAF  2C29               	goto	l3736
  3232     0CB0  3A0F               	xorlw	15	; case 8
  3233     0CB1  1903               	skipnz
  3234     0CB2  2C41               	goto	l3746
  3235     0CB3  3A01               	xorlw	1	; case 9
  3236     0CB4  1903               	skipnz
  3237     0CB5  2C56               	goto	l3754
  3238     0CB6  3A03               	xorlw	3	; case 10
  3239     0CB7  1903               	skipnz
  3240     0CB8  2C6F               	goto	l3770
  3241     0CB9  3A01               	xorlw	1	; case 11
  3242     0CBA  1903               	skipnz
  3243     0CBB  2C84               	goto	l3778
  3244     0CBC  2CBD               	goto	l348
  3245     0CBD                     l348:
  3246     0CBD  0008               	return
  3247     0CBE                     __end_of_set_time:
  3248                           
  3249                           	psect	text4
  3250     0045                     __ptext4:	
  3251 ;; *************** function _run_program *****************
  3252 ;; Defined at:
  3253 ;;		line 102 in file "washing_machine_functions_def.c"
  3254 ;; Parameters:    Size  Location     Type
  3255 ;;  key             1    wreg     unsigned char 
  3256 ;; Auto vars:     Size  Location     Type
  3257 ;;  key             1   68[BANK0 ] unsigned char 
  3258 ;; Return value:  Size  Location     Type
  3259 ;;                  1    wreg      void 
  3260 ;; Registers used:
  3261 ;;		wreg, fsr0l, fsr0h, status,2, status,0, btemp+1, pclath, cstack
  3262 ;; Tracked objects:
  3263 ;;		On entry : 0/0
  3264 ;;		On exit  : 0/0
  3265 ;;		Unchanged: 0/0
  3266 ;; Data sizes:     COMMON   BANK0   BANK1   BANK3   BANK2
  3267 ;;      Params:         0       0       0       0       0
  3268 ;;      Locals:         0       5       0       0       0
  3269 ;;      Temps:          0       4       0       0       0
  3270 ;;      Totals:         0       9       0       0       0
  3271 ;;Total ram usage:        9 bytes
  3272 ;; Hardware stack levels used: 1
  3273 ;; Hardware stack levels required when called: 4
  3274 ;; This function calls:
  3275 ;;		___awdiv
  3276 ;;		___awmod
  3277 ;;		___flge
  3278 ;;		___flmul
  3279 ;;		___flsub
  3280 ;;		___fltol
  3281 ;;		___wmul
  3282 ;;		___xxtofl
  3283 ;;		_clcd_print
  3284 ;;		_clcd_putch
  3285 ;;		_clear_screen
  3286 ;;		_door_status_check
  3287 ;; This function is called by:
  3288 ;;		_main
  3289 ;; This function uses a non-reentrant model
  3290 ;;
  3291                           
  3292     0045                     _run_program:	
  3293                           ;psect for function _run_program
  3294                           
  3295                           
  3296                           ;incstack = 0
  3297                           ; Regs used in _run_program: [wreg-fsr0h+status,2+status,0+btemp+1+pclath+cstack]
  3298                           ;run_program@key stored from wreg
  3299     0045  1283               	bcf	3,5	;RP0=0, select bank0
  3300     0046  1303               	bcf	3,6	;RP1=0, select bank0
  3301     0047  00E4               	movwf	run_program@key
  3302     0048                     l4070:
  3303                           
  3304                           ;washing_machine_functions_def.c: 102: void run_program(unsigned char key);washing_machi
      +                          ne_functions_def.c: 103: {;washing_machine_functions_def.c: 104:     door_status_check()
      +                          ;
  3305     0048  160A  118A  25E2  120A  118A  	fcall	_door_status_check
  3306     004D                     l4072:
  3307                           
  3308                           ;washing_machine_functions_def.c: 105:     if(reset_flag == 0x33)
  3309     004D  3033               	movlw	51
  3310     004E  067B               	xorwf	_reset_flag,w
  3311     004F  1D03               	btfss	3,2
  3312     0050  2852               	goto	u5491
  3313     0051  2853               	goto	u5490
  3314     0052                     u5491:
  3315     0052  2A86               	goto	l4118
  3316     0053                     u5490:
  3317     0053                     l4074:
  3318                           
  3319                           ;washing_machine_functions_def.c: 106:     {;washing_machine_functions_def.c: 107:      
      +                             clear_screen();
  3320     0053  160A  118A  2341  120A  118A  	fcall	_clear_screen
  3321     0058                     l4076:
  3322                           
  3323                           ;washing_machine_functions_def.c: 108:         clcd_print("Prog",(0x80 + 0));
  3324     0058  306E               	movlw	low (STR_28| (0+32768))
  3325     0059  1283               	bcf	3,5	;RP0=0, select bank0
  3326     005A  1303               	bcf	3,6	;RP1=0, select bank0
  3327     005B  00A0               	movwf	clcd_print@str
  3328     005C  3091               	movlw	high (STR_28| (0+32768))
  3329     005D  00A1               	movwf	clcd_print@str+1
  3330     005E  3080               	movlw	128
  3331     005F  00A2               	movwf	clcd_print@addr
  3332     0060  120A  118A  27BE  120A  118A  	fcall	_clcd_print
  3333     0065                     l4078:
  3334                           
  3335                           ;washing_machine_functions_def.c: 109:         clcd_print(washing_program[program_no],(0
      +                          x80 + 6));
  3336     0065  1283               	bcf	3,5	;RP0=0, select bank0
  3337     0066  1303               	bcf	3,6	;RP1=0, select bank0
  3338     0067  086A               	movf	_program_no,w
  3339     0068  00E0               	movwf	??_run_program
  3340     0069  0760               	addwf	??_run_program,w
  3341     006A  3EA0               	addlw	(low (_washing_program| 0))& (0+255)
  3342     006B  0084               	movwf	4
  3343     006C  1383               	bcf	3,7	;select IRP bank1
  3344     006D  0800               	movf	0,w
  3345     006E  00A0               	movwf	clcd_print@str
  3346     006F  0A84               	incf	4,f
  3347     0070  0800               	movf	0,w
  3348     0071  0384               	decf	4,f
  3349     0072  00A1               	movwf	clcd_print@str+1
  3350     0073  3086               	movlw	134
  3351     0074  00A2               	movwf	clcd_print@addr
  3352     0075  120A  118A  27BE  120A  118A  	fcall	_clcd_print
  3353     007A                     l4080:
  3354                           
  3355                           ;washing_machine_functions_def.c: 110:         clcd_print("Time",(0xC0 + 0));
  3356     007A  3069               	movlw	low (STR_29| (0+32768))
  3357     007B  1283               	bcf	3,5	;RP0=0, select bank0
  3358     007C  1303               	bcf	3,6	;RP1=0, select bank0
  3359     007D  00A0               	movwf	clcd_print@str
  3360     007E  3091               	movlw	high (STR_29| (0+32768))
  3361     007F  00A1               	movwf	clcd_print@str+1
  3362     0080  30C0               	movlw	192
  3363     0081  00A2               	movwf	clcd_print@addr
  3364     0082  120A  118A  27BE  120A  118A  	fcall	_clcd_print
  3365     0087                     l4082:
  3366                           
  3367                           ;washing_machine_functions_def.c: 112:         clcd_putch(min/10 + '0',(0xC0 + 6));
  3368     0087  30C6               	movlw	198
  3369     0088  00F8               	movwf	clcd_putch@addr
  3370     0089  300A               	movlw	10
  3371     008A  00F2               	movwf	___awdiv@divisor
  3372     008B  3000               	movlw	0
  3373     008C  00F3               	movwf	___awdiv@divisor+1
  3374     008D  1283               	bcf	3,5	;RP0=0, select bank0
  3375     008E  1303               	bcf	3,6	;RP1=0, select bank0
  3376     008F  086B               	movf	_min,w
  3377     0090  00E0               	movwf	??_run_program
  3378     0091  01E1               	clrf	??_run_program+1
  3379     0092  0860               	movf	??_run_program,w
  3380     0093  00F4               	movwf	___awdiv@dividend
  3381     0094  0861               	movf	??_run_program+1,w
  3382     0095  00F5               	movwf	___awdiv@dividend+1
  3383     0096  160A  118A  257D  120A  118A  	fcall	___awdiv
  3384     009B  0872               	movf	?___awdiv,w
  3385     009C  3E30               	addlw	48
  3386     009D  160A  118A  2365  120A  118A  	fcall	_clcd_putch
  3387     00A2                     l4084:
  3388                           
  3389                           ;washing_machine_functions_def.c: 113:         clcd_putch(min%10 + '0',(0xC0 + 7));
  3390     00A2  30C7               	movlw	199
  3391     00A3  00F8               	movwf	clcd_putch@addr
  3392     00A4  300A               	movlw	10
  3393     00A5  00F2               	movwf	___awmod@divisor
  3394     00A6  3000               	movlw	0
  3395     00A7  00F3               	movwf	___awmod@divisor+1
  3396     00A8  1283               	bcf	3,5	;RP0=0, select bank0
  3397     00A9  1303               	bcf	3,6	;RP1=0, select bank0
  3398     00AA  086B               	movf	_min,w
  3399     00AB  00E0               	movwf	??_run_program
  3400     00AC  01E1               	clrf	??_run_program+1
  3401     00AD  0860               	movf	??_run_program,w
  3402     00AE  00F4               	movwf	___awmod@dividend
  3403     00AF  0861               	movf	??_run_program+1,w
  3404     00B0  00F5               	movwf	___awmod@dividend+1
  3405     00B1  160A  118A  2526  120A  118A  	fcall	___awmod
  3406     00B6  0872               	movf	?___awmod,w
  3407     00B7  3E30               	addlw	48
  3408     00B8  160A  118A  2365  120A  118A  	fcall	_clcd_putch
  3409     00BD                     l4086:
  3410                           
  3411                           ;washing_machine_functions_def.c: 114:         clcd_putch(':',(0xC0 + 8));
  3412     00BD  30C8               	movlw	200
  3413     00BE  00F8               	movwf	clcd_putch@addr
  3414     00BF  303A               	movlw	58
  3415     00C0  160A  118A  2365  120A  118A  	fcall	_clcd_putch
  3416     00C5                     l4088:
  3417                           
  3418                           ;washing_machine_functions_def.c: 115:         clcd_putch(sec/10 + '0',(0xC0 + 9));
  3419     00C5  30C9               	movlw	201
  3420     00C6  00F8               	movwf	clcd_putch@addr
  3421     00C7  300A               	movlw	10
  3422     00C8  00F2               	movwf	___awdiv@divisor
  3423     00C9  3000               	movlw	0
  3424     00CA  00F3               	movwf	___awdiv@divisor+1
  3425     00CB  1283               	bcf	3,5	;RP0=0, select bank0
  3426     00CC  1303               	bcf	3,6	;RP1=0, select bank0
  3427     00CD  086C               	movf	_sec,w
  3428     00CE  00E0               	movwf	??_run_program
  3429     00CF  01E1               	clrf	??_run_program+1
  3430     00D0  0860               	movf	??_run_program,w
  3431     00D1  00F4               	movwf	___awdiv@dividend
  3432     00D2  0861               	movf	??_run_program+1,w
  3433     00D3  00F5               	movwf	___awdiv@dividend+1
  3434     00D4  160A  118A  257D  120A  118A  	fcall	___awdiv
  3435     00D9  0872               	movf	?___awdiv,w
  3436     00DA  3E30               	addlw	48
  3437     00DB  160A  118A  2365  120A  118A  	fcall	_clcd_putch
  3438     00E0                     l4090:
  3439                           
  3440                           ;washing_machine_functions_def.c: 116:         clcd_putch(sec%10 + '0',(0xC0 + 10));
  3441     00E0  30CA               	movlw	202
  3442     00E1  00F8               	movwf	clcd_putch@addr
  3443     00E2  300A               	movlw	10
  3444     00E3  00F2               	movwf	___awmod@divisor
  3445     00E4  3000               	movlw	0
  3446     00E5  00F3               	movwf	___awmod@divisor+1
  3447     00E6  1283               	bcf	3,5	;RP0=0, select bank0
  3448     00E7  1303               	bcf	3,6	;RP1=0, select bank0
  3449     00E8  086C               	movf	_sec,w
  3450     00E9  00E0               	movwf	??_run_program
  3451     00EA  01E1               	clrf	??_run_program+1
  3452     00EB  0860               	movf	??_run_program,w
  3453     00EC  00F4               	movwf	___awmod@dividend
  3454     00ED  0861               	movf	??_run_program+1,w
  3455     00EE  00F5               	movwf	___awmod@dividend+1
  3456     00EF  160A  118A  2526  120A  118A  	fcall	___awmod
  3457     00F4  0872               	movf	?___awmod,w
  3458     00F5  3E30               	addlw	48
  3459     00F6  160A  118A  2365  120A  118A  	fcall	_clcd_putch
  3460     00FB                     l4092:
  3461                           
  3462                           ;washing_machine_functions_def.c: 117:         reset_flag = 0xFF;
  3463     00FB  30FF               	movlw	255
  3464     00FC  00FB               	movwf	_reset_flag
  3465     00FD                     l4094:
  3466                           
  3467                           ;washing_machine_functions_def.c: 119:         _delay((unsigned long)((2000)*(20000000/4
      +                          000.0)));
  3468     00FD  3033               	movlw	51
  3469     00FE  1283               	bcf	3,5	;RP0=0, select bank0
  3470     00FF  1303               	bcf	3,6	;RP1=0, select bank0
  3471     0100  00E2               	movwf	??_run_program+2
  3472     0101  30BB               	movlw	187
  3473     0102  00E1               	movwf	??_run_program+1
  3474     0103  30DF               	movlw	223
  3475     0104  00E0               	movwf	??_run_program
  3476     0105                     u5707:
  3477     0105  0BE0               	decfsz	??_run_program,f
  3478     0106  2905               	goto	u5707
  3479     0107  0BE1               	decfsz	??_run_program+1,f
  3480     0108  2905               	goto	u5707
  3481     0109  0BE2               	decfsz	??_run_program+2,f
  3482     010A  2905               	goto	u5707
  3483     010B                     l4096:
  3484                           
  3485                           ;washing_machine_functions_def.c: 120:         clear_screen();
  3486     010B  160A  118A  2341  120A  118A  	fcall	_clear_screen
  3487     0110                     l4098:
  3488                           
  3489                           ;washing_machine_functions_def.c: 121:         clcd_print("Function:",(0x80 + 0));
  3490     0110  30D6               	movlw	low (STR_30| (0+32768))
  3491     0111  1283               	bcf	3,5	;RP0=0, select bank0
  3492     0112  1303               	bcf	3,6	;RP1=0, select bank0
  3493     0113  00A0               	movwf	clcd_print@str
  3494     0114  3090               	movlw	high (STR_30| (0+32768))
  3495     0115  00A1               	movwf	clcd_print@str+1
  3496     0116  3080               	movlw	128
  3497     0117  00A2               	movwf	clcd_print@addr
  3498     0118  120A  118A  27BE  120A  118A  	fcall	_clcd_print
  3499     011D                     l4100:
  3500                           
  3501                           ;washing_machine_functions_def.c: 122:         clcd_print("Time",(0xC0 + 0));
  3502     011D  3069               	movlw	low (STR_29| (0+32768))
  3503     011E  1283               	bcf	3,5	;RP0=0, select bank0
  3504     011F  1303               	bcf	3,6	;RP1=0, select bank0
  3505     0120  00A0               	movwf	clcd_print@str
  3506     0121  3091               	movlw	high (STR_29| (0+32768))
  3507     0122  00A1               	movwf	clcd_print@str+1
  3508     0123  30C0               	movlw	192
  3509     0124  00A2               	movwf	clcd_print@addr
  3510     0125  120A  118A  27BE  120A  118A  	fcall	_clcd_print
  3511     012A                     l4102:
  3512                           
  3513                           ;washing_machine_functions_def.c: 123:         clcd_print("SW5:START",(0x90 + 0));
  3514     012A  30EA               	movlw	low (STR_32| (0+32768))
  3515     012B  1283               	bcf	3,5	;RP0=0, select bank0
  3516     012C  1303               	bcf	3,6	;RP1=0, select bank0
  3517     012D  00A0               	movwf	clcd_print@str
  3518     012E  3090               	movlw	high (STR_32| (0+32768))
  3519     012F  00A1               	movwf	clcd_print@str+1
  3520     0130  3090               	movlw	144
  3521     0131  00A2               	movwf	clcd_print@addr
  3522     0132  120A  118A  27BE  120A  118A  	fcall	_clcd_print
  3523     0137                     l4104:
  3524                           
  3525                           ;washing_machine_functions_def.c: 124:         clcd_print("SW6:PAUSE",(0xD0 + 0));
  3526     0137  30E0               	movlw	low (STR_33| (0+32768))
  3527     0138  1283               	bcf	3,5	;RP0=0, select bank0
  3528     0139  1303               	bcf	3,6	;RP1=0, select bank0
  3529     013A  00A0               	movwf	clcd_print@str
  3530     013B  3090               	movlw	high (STR_33| (0+32768))
  3531     013C  00A1               	movwf	clcd_print@str+1
  3532     013D  30D0               	movlw	208
  3533     013E  00A2               	movwf	clcd_print@addr
  3534     013F  120A  118A  27BE  120A  118A  	fcall	_clcd_print
  3535     0144                     l4106:
  3536                           
  3537                           ;washing_machine_functions_def.c: 126:         total_time = time = min * 60 + sec;
  3538     0144  303C               	movlw	60
  3539     0145  00F4               	movwf	___wmul@multiplicand
  3540     0146  3000               	movlw	0
  3541     0147  00F5               	movwf	___wmul@multiplicand+1
  3542     0148  1283               	bcf	3,5	;RP0=0, select bank0
  3543     0149  1303               	bcf	3,6	;RP1=0, select bank0
  3544     014A  086B               	movf	_min,w
  3545     014B  00E0               	movwf	??_run_program
  3546     014C  01E1               	clrf	??_run_program+1
  3547     014D  0860               	movf	??_run_program,w
  3548     014E  00F2               	movwf	___wmul@multiplier
  3549     014F  0861               	movf	??_run_program+1,w
  3550     0150  00F3               	movwf	___wmul@multiplier+1
  3551     0151  160A  118A  23E0  120A  118A  	fcall	___wmul
  3552     0156  1283               	bcf	3,5	;RP0=0, select bank0
  3553     0157  1303               	bcf	3,6	;RP1=0, select bank0
  3554     0158  086C               	movf	_sec,w
  3555     0159  0772               	addwf	?___wmul,w
  3556     015A  00E2               	movwf	??_run_program+2
  3557     015B  3000               	movlw	0
  3558     015C  1803               	skipnc
  3559     015D  3001               	movlw	1
  3560     015E  0773               	addwf	?___wmul+1,w
  3561     015F  00E3               	movwf	??_run_program+3
  3562     0160  0862               	movf	??_run_program+2,w
  3563     0161  00A4               	movwf	___xxtofl@val
  3564     0162  0863               	movf	??_run_program+3,w
  3565     0163  00A5               	movwf	___xxtofl@val+1
  3566     0164  3000               	movlw	0
  3567     0165  1BA5               	btfsc	___xxtofl@val+1,7
  3568     0166  30FF               	movlw	255
  3569     0167  00A6               	movwf	___xxtofl@val+2
  3570     0168  00A7               	movwf	___xxtofl@val+3
  3571     0169  3001               	movlw	1
  3572     016A  120A  158A  2092  120A  118A  	fcall	___xxtofl
  3573     016F  1283               	bcf	3,5	;RP0=0, select bank0
  3574     0170  1303               	bcf	3,6	;RP1=0, select bank0
  3575     0171  0827               	movf	?___xxtofl+3,w
  3576     0172  1683               	bsf	3,5	;RP0=1, select bank1
  3577     0173  1303               	bcf	3,6	;RP1=0, select bank1
  3578     0174  00C5               	movwf	(_time+3)^(0+128)
  3579     0175  1283               	bcf	3,5	;RP0=0, select bank0
  3580     0176  1303               	bcf	3,6	;RP1=0, select bank0
  3581     0177  0826               	movf	?___xxtofl+2,w
  3582     0178  1683               	bsf	3,5	;RP0=1, select bank1
  3583     0179  1303               	bcf	3,6	;RP1=0, select bank1
  3584     017A  00C4               	movwf	(_time+2)^(0+128)
  3585     017B  1283               	bcf	3,5	;RP0=0, select bank0
  3586     017C  1303               	bcf	3,6	;RP1=0, select bank0
  3587     017D  0825               	movf	?___xxtofl+1,w
  3588     017E  1683               	bsf	3,5	;RP0=1, select bank1
  3589     017F  1303               	bcf	3,6	;RP1=0, select bank1
  3590     0180  00C3               	movwf	(_time+1)^(0+128)
  3591     0181  1283               	bcf	3,5	;RP0=0, select bank0
  3592     0182  1303               	bcf	3,6	;RP1=0, select bank0
  3593     0183  0824               	movf	?___xxtofl,w
  3594     0184  1683               	bsf	3,5	;RP0=1, select bank1
  3595     0185  1303               	bcf	3,6	;RP1=0, select bank1
  3596     0186  00C2               	movwf	_time^(0+128)
  3597     0187  0845               	movf	(_time+3)^(0+128),w
  3598     0188  00D5               	movwf	(_total_time+3)^(0+128)
  3599     0189  0844               	movf	(_time+2)^(0+128),w
  3600     018A  00D4               	movwf	(_total_time+2)^(0+128)
  3601     018B  0843               	movf	(_time+1)^(0+128),w
  3602     018C  00D3               	movwf	(_total_time+1)^(0+128)
  3603     018D  0842               	movf	_time^(0+128),w
  3604     018E  00D2               	movwf	_total_time^(0+128)
  3605     018F                     l4108:
  3606                           
  3607                           ;washing_machine_functions_def.c: 127:         wash_time = (int)total_time* 0.46;
  3608     018F  303E               	movlw	62
  3609     0190  1283               	bcf	3,5	;RP0=0, select bank0
  3610     0191  1303               	bcf	3,6	;RP1=0, select bank0
  3611     0192  00B5               	movwf	___flmul@b+3
  3612     0193  30EB               	movlw	235
  3613     0194  00B4               	movwf	___flmul@b+2
  3614     0195  3085               	movlw	133
  3615     0196  00B3               	movwf	___flmul@b+1
  3616     0197  301F               	movlw	31
  3617     0198  00B2               	movwf	___flmul@b
  3618     0199  1683               	bsf	3,5	;RP0=1, select bank1
  3619     019A  1303               	bcf	3,6	;RP1=0, select bank1
  3620     019B  0855               	movf	(_total_time+3)^(0+128),w
  3621     019C  00F5               	movwf	___fltol@f1+3
  3622     019D  0854               	movf	(_total_time+2)^(0+128),w
  3623     019E  00F4               	movwf	___fltol@f1+2
  3624     019F  0853               	movf	(_total_time+1)^(0+128),w
  3625     01A0  00F3               	movwf	___fltol@f1+1
  3626     01A1  0852               	movf	_total_time^(0+128),w
  3627     01A2  00F2               	movwf	___fltol@f1
  3628     01A3  120A  158A  201C  120A  118A  	fcall	___fltol
  3629     01A8  0872               	movf	?___fltol,w
  3630     01A9  1283               	bcf	3,5	;RP0=0, select bank0
  3631     01AA  1303               	bcf	3,6	;RP1=0, select bank0
  3632     01AB  00A4               	movwf	___xxtofl@val
  3633     01AC  0873               	movf	?___fltol+1,w
  3634     01AD  00A5               	movwf	___xxtofl@val+1
  3635     01AE  3000               	movlw	0
  3636     01AF  1BA5               	btfsc	___xxtofl@val+1,7
  3637     01B0  30FF               	movlw	255
  3638     01B1  00A6               	movwf	___xxtofl@val+2
  3639     01B2  00A7               	movwf	___xxtofl@val+3
  3640     01B3  3001               	movlw	1
  3641     01B4  120A  158A  2092  120A  118A  	fcall	___xxtofl
  3642     01B9  1283               	bcf	3,5	;RP0=0, select bank0
  3643     01BA  1303               	bcf	3,6	;RP1=0, select bank0
  3644     01BB  0827               	movf	?___xxtofl+3,w
  3645     01BC  00B9               	movwf	___flmul@a+3
  3646     01BD  0826               	movf	?___xxtofl+2,w
  3647     01BE  00B8               	movwf	___flmul@a+2
  3648     01BF  0825               	movf	?___xxtofl+1,w
  3649     01C0  00B7               	movwf	___flmul@a+1
  3650     01C1  0824               	movf	?___xxtofl,w
  3651     01C2  00B6               	movwf	___flmul@a
  3652     01C3  120A  158A  24BE  120A  118A  	fcall	___flmul
  3653     01C8  1283               	bcf	3,5	;RP0=0, select bank0
  3654     01C9  1303               	bcf	3,6	;RP1=0, select bank0
  3655     01CA  0835               	movf	?___flmul+3,w
  3656     01CB  1683               	bsf	3,5	;RP0=1, select bank1
  3657     01CC  1303               	bcf	3,6	;RP1=0, select bank1
  3658     01CD  00D1               	movwf	(_wash_time+3)^(0+128)
  3659     01CE  1283               	bcf	3,5	;RP0=0, select bank0
  3660     01CF  1303               	bcf	3,6	;RP1=0, select bank0
  3661     01D0  0834               	movf	?___flmul+2,w
  3662     01D1  1683               	bsf	3,5	;RP0=1, select bank1
  3663     01D2  1303               	bcf	3,6	;RP1=0, select bank1
  3664     01D3  00D0               	movwf	(_wash_time+2)^(0+128)
  3665     01D4  1283               	bcf	3,5	;RP0=0, select bank0
  3666     01D5  1303               	bcf	3,6	;RP1=0, select bank0
  3667     01D6  0833               	movf	?___flmul+1,w
  3668     01D7  1683               	bsf	3,5	;RP0=1, select bank1
  3669     01D8  1303               	bcf	3,6	;RP1=0, select bank1
  3670     01D9  00CF               	movwf	(_wash_time+1)^(0+128)
  3671     01DA  1283               	bcf	3,5	;RP0=0, select bank0
  3672     01DB  1303               	bcf	3,6	;RP1=0, select bank0
  3673     01DC  0832               	movf	?___flmul,w
  3674     01DD  1683               	bsf	3,5	;RP0=1, select bank1
  3675     01DE  1303               	bcf	3,6	;RP1=0, select bank1
  3676     01DF  00CE               	movwf	_wash_time^(0+128)
  3677     01E0                     l4110:
  3678                           
  3679                           ;washing_machine_functions_def.c: 128:         rinse_time = (int) total_time * 0.12;
  3680     01E0  303D               	movlw	61
  3681     01E1  1283               	bcf	3,5	;RP0=0, select bank0
  3682     01E2  1303               	bcf	3,6	;RP1=0, select bank0
  3683     01E3  00B5               	movwf	___flmul@b+3
  3684     01E4  30F5               	movlw	245
  3685     01E5  00B4               	movwf	___flmul@b+2
  3686     01E6  30C2               	movlw	194
  3687     01E7  00B3               	movwf	___flmul@b+1
  3688     01E8  308F               	movlw	143
  3689     01E9  00B2               	movwf	___flmul@b
  3690     01EA  1683               	bsf	3,5	;RP0=1, select bank1
  3691     01EB  1303               	bcf	3,6	;RP1=0, select bank1
  3692     01EC  0855               	movf	(_total_time+3)^(0+128),w
  3693     01ED  00F5               	movwf	___fltol@f1+3
  3694     01EE  0854               	movf	(_total_time+2)^(0+128),w
  3695     01EF  00F4               	movwf	___fltol@f1+2
  3696     01F0  0853               	movf	(_total_time+1)^(0+128),w
  3697     01F1  00F3               	movwf	___fltol@f1+1
  3698     01F2  0852               	movf	_total_time^(0+128),w
  3699     01F3  00F2               	movwf	___fltol@f1
  3700     01F4  120A  158A  201C  120A  118A  	fcall	___fltol
  3701     01F9  0872               	movf	?___fltol,w
  3702     01FA  1283               	bcf	3,5	;RP0=0, select bank0
  3703     01FB  1303               	bcf	3,6	;RP1=0, select bank0
  3704     01FC  00A4               	movwf	___xxtofl@val
  3705     01FD  0873               	movf	?___fltol+1,w
  3706     01FE  00A5               	movwf	___xxtofl@val+1
  3707     01FF  3000               	movlw	0
  3708     0200  1BA5               	btfsc	___xxtofl@val+1,7
  3709     0201  30FF               	movlw	255
  3710     0202  00A6               	movwf	___xxtofl@val+2
  3711     0203  00A7               	movwf	___xxtofl@val+3
  3712     0204  3001               	movlw	1
  3713     0205  120A  158A  2092  120A  118A  	fcall	___xxtofl
  3714     020A  1283               	bcf	3,5	;RP0=0, select bank0
  3715     020B  1303               	bcf	3,6	;RP1=0, select bank0
  3716     020C  0827               	movf	?___xxtofl+3,w
  3717     020D  00B9               	movwf	___flmul@a+3
  3718     020E  0826               	movf	?___xxtofl+2,w
  3719     020F  00B8               	movwf	___flmul@a+2
  3720     0210  0825               	movf	?___xxtofl+1,w
  3721     0211  00B7               	movwf	___flmul@a+1
  3722     0212  0824               	movf	?___xxtofl,w
  3723     0213  00B6               	movwf	___flmul@a
  3724     0214  120A  158A  24BE  120A  118A  	fcall	___flmul
  3725     0219  1283               	bcf	3,5	;RP0=0, select bank0
  3726     021A  1303               	bcf	3,6	;RP1=0, select bank0
  3727     021B  0835               	movf	?___flmul+3,w
  3728     021C  1683               	bsf	3,5	;RP0=1, select bank1
  3729     021D  1303               	bcf	3,6	;RP1=0, select bank1
  3730     021E  00CD               	movwf	(_rinse_time+3)^(0+128)
  3731     021F  1283               	bcf	3,5	;RP0=0, select bank0
  3732     0220  1303               	bcf	3,6	;RP1=0, select bank0
  3733     0221  0834               	movf	?___flmul+2,w
  3734     0222  1683               	bsf	3,5	;RP0=1, select bank1
  3735     0223  1303               	bcf	3,6	;RP1=0, select bank1
  3736     0224  00CC               	movwf	(_rinse_time+2)^(0+128)
  3737     0225  1283               	bcf	3,5	;RP0=0, select bank0
  3738     0226  1303               	bcf	3,6	;RP1=0, select bank0
  3739     0227  0833               	movf	?___flmul+1,w
  3740     0228  1683               	bsf	3,5	;RP0=1, select bank1
  3741     0229  1303               	bcf	3,6	;RP1=0, select bank1
  3742     022A  00CB               	movwf	(_rinse_time+1)^(0+128)
  3743     022B  1283               	bcf	3,5	;RP0=0, select bank0
  3744     022C  1303               	bcf	3,6	;RP1=0, select bank0
  3745     022D  0832               	movf	?___flmul,w
  3746     022E  1683               	bsf	3,5	;RP0=1, select bank1
  3747     022F  1303               	bcf	3,6	;RP1=0, select bank1
  3748     0230  00CA               	movwf	_rinse_time^(0+128)
  3749     0231                     l4112:
  3750                           
  3751                           ;washing_machine_functions_def.c: 129:         spin_time = (int) total_time * 0.42;
  3752     0231  303E               	movlw	62
  3753     0232  1283               	bcf	3,5	;RP0=0, select bank0
  3754     0233  1303               	bcf	3,6	;RP1=0, select bank0
  3755     0234  00B5               	movwf	___flmul@b+3
  3756     0235  30D7               	movlw	215
  3757     0236  00B4               	movwf	___flmul@b+2
  3758     0237  300A               	movlw	10
  3759     0238  00B3               	movwf	___flmul@b+1
  3760     0239  303D               	movlw	61
  3761     023A  00B2               	movwf	___flmul@b
  3762     023B  1683               	bsf	3,5	;RP0=1, select bank1
  3763     023C  1303               	bcf	3,6	;RP1=0, select bank1
  3764     023D  0855               	movf	(_total_time+3)^(0+128),w
  3765     023E  00F5               	movwf	___fltol@f1+3
  3766     023F  0854               	movf	(_total_time+2)^(0+128),w
  3767     0240  00F4               	movwf	___fltol@f1+2
  3768     0241  0853               	movf	(_total_time+1)^(0+128),w
  3769     0242  00F3               	movwf	___fltol@f1+1
  3770     0243  0852               	movf	_total_time^(0+128),w
  3771     0244  00F2               	movwf	___fltol@f1
  3772     0245  120A  158A  201C  120A  118A  	fcall	___fltol
  3773     024A  0872               	movf	?___fltol,w
  3774     024B  1283               	bcf	3,5	;RP0=0, select bank0
  3775     024C  1303               	bcf	3,6	;RP1=0, select bank0
  3776     024D  00A4               	movwf	___xxtofl@val
  3777     024E  0873               	movf	?___fltol+1,w
  3778     024F  00A5               	movwf	___xxtofl@val+1
  3779     0250  3000               	movlw	0
  3780     0251  1BA5               	btfsc	___xxtofl@val+1,7
  3781     0252  30FF               	movlw	255
  3782     0253  00A6               	movwf	___xxtofl@val+2
  3783     0254  00A7               	movwf	___xxtofl@val+3
  3784     0255  3001               	movlw	1
  3785     0256  120A  158A  2092  120A  118A  	fcall	___xxtofl
  3786     025B  1283               	bcf	3,5	;RP0=0, select bank0
  3787     025C  1303               	bcf	3,6	;RP1=0, select bank0
  3788     025D  0827               	movf	?___xxtofl+3,w
  3789     025E  00B9               	movwf	___flmul@a+3
  3790     025F  0826               	movf	?___xxtofl+2,w
  3791     0260  00B8               	movwf	___flmul@a+2
  3792     0261  0825               	movf	?___xxtofl+1,w
  3793     0262  00B7               	movwf	___flmul@a+1
  3794     0263  0824               	movf	?___xxtofl,w
  3795     0264  00B6               	movwf	___flmul@a
  3796     0265  120A  158A  24BE  120A  118A  	fcall	___flmul
  3797     026A  1283               	bcf	3,5	;RP0=0, select bank0
  3798     026B  1303               	bcf	3,6	;RP1=0, select bank0
  3799     026C  0835               	movf	?___flmul+3,w
  3800     026D  1683               	bsf	3,5	;RP0=1, select bank1
  3801     026E  1303               	bcf	3,6	;RP1=0, select bank1
  3802     026F  00C9               	movwf	(_spin_time+3)^(0+128)
  3803     0270  1283               	bcf	3,5	;RP0=0, select bank0
  3804     0271  1303               	bcf	3,6	;RP1=0, select bank0
  3805     0272  0834               	movf	?___flmul+2,w
  3806     0273  1683               	bsf	3,5	;RP0=1, select bank1
  3807     0274  1303               	bcf	3,6	;RP1=0, select bank1
  3808     0275  00C8               	movwf	(_spin_time+2)^(0+128)
  3809     0276  1283               	bcf	3,5	;RP0=0, select bank0
  3810     0277  1303               	bcf	3,6	;RP1=0, select bank0
  3811     0278  0833               	movf	?___flmul+1,w
  3812     0279  1683               	bsf	3,5	;RP0=1, select bank1
  3813     027A  1303               	bcf	3,6	;RP1=0, select bank1
  3814     027B  00C7               	movwf	(_spin_time+1)^(0+128)
  3815     027C  1283               	bcf	3,5	;RP0=0, select bank0
  3816     027D  1303               	bcf	3,6	;RP1=0, select bank0
  3817     027E  0832               	movf	?___flmul,w
  3818     027F  1683               	bsf	3,5	;RP0=1, select bank1
  3819     0280  1303               	bcf	3,6	;RP1=0, select bank1
  3820     0281  00C6               	movwf	_spin_time^(0+128)
  3821     0282                     l4114:
  3822                           
  3823                           ;washing_machine_functions_def.c: 131:         TMR2ON = 1;
  3824     0282  1283               	bcf	3,5	;RP0=0, select bank0
  3825     0283  1303               	bcf	3,6	;RP1=0, select bank0
  3826     0284  1512               	bsf	18,2	;volatile
  3827     0285                     l4116:
  3828                           
  3829                           ;washing_machine_functions_def.c: 132:         RC2 = 1;
  3830     0285  1507               	bsf	7,2	;volatile
  3831     0286                     l4118:
  3832                           
  3833                           ;washing_machine_functions_def.c: 135:     if( key == 0x1F)
  3834     0286  301F               	movlw	31
  3835     0287  1283               	bcf	3,5	;RP0=0, select bank0
  3836     0288  1303               	bcf	3,6	;RP1=0, select bank0
  3837     0289  0664               	xorwf	run_program@key,w
  3838     028A  1D03               	btfss	3,2
  3839     028B  2A8D               	goto	u5501
  3840     028C  2A8E               	goto	u5500
  3841     028D                     u5501:
  3842     028D  2A92               	goto	l4122
  3843     028E                     u5500:
  3844     028E                     l4120:
  3845                           
  3846                           ;washing_machine_functions_def.c: 136:     {;washing_machine_functions_def.c: 137:      
      +                             RC2 = 0 ;
  3847     028E  1107               	bcf	7,2	;volatile
  3848                           
  3849                           ;washing_machine_functions_def.c: 138:         TMR2ON = 0 ;
  3850     028F  1112               	bcf	18,2	;volatile
  3851                           
  3852                           ;washing_machine_functions_def.c: 139:         operational_mode = 0x44 ;
  3853     0290  3044               	movlw	68
  3854     0291  00ED               	movwf	_operational_mode
  3855     0292                     l4122:
  3856                           
  3857                           ;washing_machine_functions_def.c: 141:     total_time = min *60 + sec;
  3858     0292  303C               	movlw	60
  3859     0293  00F4               	movwf	___wmul@multiplicand
  3860     0294  3000               	movlw	0
  3861     0295  00F5               	movwf	___wmul@multiplicand+1
  3862     0296  086B               	movf	_min,w
  3863     0297  00E0               	movwf	??_run_program
  3864     0298  01E1               	clrf	??_run_program+1
  3865     0299  0860               	movf	??_run_program,w
  3866     029A  00F2               	movwf	___wmul@multiplier
  3867     029B  0861               	movf	??_run_program+1,w
  3868     029C  00F3               	movwf	___wmul@multiplier+1
  3869     029D  160A  118A  23E0  120A  118A  	fcall	___wmul
  3870     02A2  1283               	bcf	3,5	;RP0=0, select bank0
  3871     02A3  1303               	bcf	3,6	;RP1=0, select bank0
  3872     02A4  086C               	movf	_sec,w
  3873     02A5  0772               	addwf	?___wmul,w
  3874     02A6  00E2               	movwf	??_run_program+2
  3875     02A7  3000               	movlw	0
  3876     02A8  1803               	skipnc
  3877     02A9  3001               	movlw	1
  3878     02AA  0773               	addwf	?___wmul+1,w
  3879     02AB  00E3               	movwf	??_run_program+3
  3880     02AC  0862               	movf	??_run_program+2,w
  3881     02AD  00A4               	movwf	___xxtofl@val
  3882     02AE  0863               	movf	??_run_program+3,w
  3883     02AF  00A5               	movwf	___xxtofl@val+1
  3884     02B0  3000               	movlw	0
  3885     02B1  1BA5               	btfsc	___xxtofl@val+1,7
  3886     02B2  30FF               	movlw	255
  3887     02B3  00A6               	movwf	___xxtofl@val+2
  3888     02B4  00A7               	movwf	___xxtofl@val+3
  3889     02B5  3001               	movlw	1
  3890     02B6  120A  158A  2092  120A  118A  	fcall	___xxtofl
  3891     02BB  1283               	bcf	3,5	;RP0=0, select bank0
  3892     02BC  1303               	bcf	3,6	;RP1=0, select bank0
  3893     02BD  0827               	movf	?___xxtofl+3,w
  3894     02BE  1683               	bsf	3,5	;RP0=1, select bank1
  3895     02BF  1303               	bcf	3,6	;RP1=0, select bank1
  3896     02C0  00D5               	movwf	(_total_time+3)^(0+128)
  3897     02C1  1283               	bcf	3,5	;RP0=0, select bank0
  3898     02C2  1303               	bcf	3,6	;RP1=0, select bank0
  3899     02C3  0826               	movf	?___xxtofl+2,w
  3900     02C4  1683               	bsf	3,5	;RP0=1, select bank1
  3901     02C5  1303               	bcf	3,6	;RP1=0, select bank1
  3902     02C6  00D4               	movwf	(_total_time+2)^(0+128)
  3903     02C7  1283               	bcf	3,5	;RP0=0, select bank0
  3904     02C8  1303               	bcf	3,6	;RP1=0, select bank0
  3905     02C9  0825               	movf	?___xxtofl+1,w
  3906     02CA  1683               	bsf	3,5	;RP0=1, select bank1
  3907     02CB  1303               	bcf	3,6	;RP1=0, select bank1
  3908     02CC  00D3               	movwf	(_total_time+1)^(0+128)
  3909     02CD  1283               	bcf	3,5	;RP0=0, select bank0
  3910     02CE  1303               	bcf	3,6	;RP1=0, select bank0
  3911     02CF  0824               	movf	?___xxtofl,w
  3912     02D0  1683               	bsf	3,5	;RP0=1, select bank1
  3913     02D1  1303               	bcf	3,6	;RP1=0, select bank1
  3914     02D2  00D2               	movwf	_total_time^(0+128)
  3915     02D3                     l4124:
  3916                           
  3917                           ;washing_machine_functions_def.c: 143:     if (program_no <= 7)
  3918     02D3  3008               	movlw	8
  3919     02D4  1283               	bcf	3,5	;RP0=0, select bank0
  3920     02D5  1303               	bcf	3,6	;RP1=0, select bank0
  3921     02D6  026A               	subwf	_program_no,w
  3922     02D7  1803               	skipnc
  3923     02D8  2ADA               	goto	u5511
  3924     02D9  2ADB               	goto	u5510
  3925     02DA                     u5511:
  3926     02DA  2BF4               	goto	l4136
  3927     02DB                     u5510:
  3928     02DB                     l4126:
  3929                           
  3930                           ;washing_machine_functions_def.c: 144:     {;washing_machine_functions_def.c: 145:      
      +                             if( total_time >= (time - wash_time ) )
  3931     02DB  1683               	bsf	3,5	;RP0=1, select bank1
  3932     02DC  1303               	bcf	3,6	;RP1=0, select bank1
  3933     02DD  0855               	movf	(_total_time+3)^(0+128),w
  3934     02DE  1283               	bcf	3,5	;RP0=0, select bank0
  3935     02DF  1303               	bcf	3,6	;RP1=0, select bank0
  3936     02E0  00D7               	movwf	___flge@ff1+3
  3937     02E1  1683               	bsf	3,5	;RP0=1, select bank1
  3938     02E2  1303               	bcf	3,6	;RP1=0, select bank1
  3939     02E3  0854               	movf	(_total_time+2)^(0+128),w
  3940     02E4  1283               	bcf	3,5	;RP0=0, select bank0
  3941     02E5  1303               	bcf	3,6	;RP1=0, select bank0
  3942     02E6  00D6               	movwf	___flge@ff1+2
  3943     02E7  1683               	bsf	3,5	;RP0=1, select bank1
  3944     02E8  1303               	bcf	3,6	;RP1=0, select bank1
  3945     02E9  0853               	movf	(_total_time+1)^(0+128),w
  3946     02EA  1283               	bcf	3,5	;RP0=0, select bank0
  3947     02EB  1303               	bcf	3,6	;RP1=0, select bank0
  3948     02EC  00D5               	movwf	___flge@ff1+1
  3949     02ED  1683               	bsf	3,5	;RP0=1, select bank1
  3950     02EE  1303               	bcf	3,6	;RP1=0, select bank1
  3951     02EF  0852               	movf	_total_time^(0+128),w
  3952     02F0  1283               	bcf	3,5	;RP0=0, select bank0
  3953     02F1  1303               	bcf	3,6	;RP1=0, select bank0
  3954     02F2  00D4               	movwf	___flge@ff1
  3955     02F3  1683               	bsf	3,5	;RP0=1, select bank1
  3956     02F4  1303               	bcf	3,6	;RP1=0, select bank1
  3957     02F5  0851               	movf	(_wash_time+3)^(0+128),w
  3958     02F6  1283               	bcf	3,5	;RP0=0, select bank0
  3959     02F7  1303               	bcf	3,6	;RP1=0, select bank0
  3960     02F8  00CF               	movwf	___flsub@a+3
  3961     02F9  1683               	bsf	3,5	;RP0=1, select bank1
  3962     02FA  1303               	bcf	3,6	;RP1=0, select bank1
  3963     02FB  0850               	movf	(_wash_time+2)^(0+128),w
  3964     02FC  1283               	bcf	3,5	;RP0=0, select bank0
  3965     02FD  1303               	bcf	3,6	;RP1=0, select bank0
  3966     02FE  00CE               	movwf	___flsub@a+2
  3967     02FF  1683               	bsf	3,5	;RP0=1, select bank1
  3968     0300  1303               	bcf	3,6	;RP1=0, select bank1
  3969     0301  084F               	movf	(_wash_time+1)^(0+128),w
  3970     0302  1283               	bcf	3,5	;RP0=0, select bank0
  3971     0303  1303               	bcf	3,6	;RP1=0, select bank0
  3972     0304  00CD               	movwf	___flsub@a+1
  3973     0305  1683               	bsf	3,5	;RP0=1, select bank1
  3974     0306  1303               	bcf	3,6	;RP1=0, select bank1
  3975     0307  084E               	movf	_wash_time^(0+128),w
  3976     0308  1283               	bcf	3,5	;RP0=0, select bank0
  3977     0309  1303               	bcf	3,6	;RP1=0, select bank0
  3978     030A  00CC               	movwf	___flsub@a
  3979     030B  1683               	bsf	3,5	;RP0=1, select bank1
  3980     030C  1303               	bcf	3,6	;RP1=0, select bank1
  3981     030D  0845               	movf	(_time+3)^(0+128),w
  3982     030E  1283               	bcf	3,5	;RP0=0, select bank0
  3983     030F  1303               	bcf	3,6	;RP1=0, select bank0
  3984     0310  00D3               	movwf	___flsub@b+3
  3985     0311  1683               	bsf	3,5	;RP0=1, select bank1
  3986     0312  1303               	bcf	3,6	;RP1=0, select bank1
  3987     0313  0844               	movf	(_time+2)^(0+128),w
  3988     0314  1283               	bcf	3,5	;RP0=0, select bank0
  3989     0315  1303               	bcf	3,6	;RP1=0, select bank0
  3990     0316  00D2               	movwf	___flsub@b+2
  3991     0317  1683               	bsf	3,5	;RP0=1, select bank1
  3992     0318  1303               	bcf	3,6	;RP1=0, select bank1
  3993     0319  0843               	movf	(_time+1)^(0+128),w
  3994     031A  1283               	bcf	3,5	;RP0=0, select bank0
  3995     031B  1303               	bcf	3,6	;RP1=0, select bank0
  3996     031C  00D1               	movwf	___flsub@b+1
  3997     031D  1683               	bsf	3,5	;RP0=1, select bank1
  3998     031E  1303               	bcf	3,6	;RP1=0, select bank1
  3999     031F  0842               	movf	_time^(0+128),w
  4000     0320  1283               	bcf	3,5	;RP0=0, select bank0
  4001     0321  1303               	bcf	3,6	;RP1=0, select bank0
  4002     0322  00D0               	movwf	___flsub@b
  4003     0323  160A  118A  23BC  120A  118A  	fcall	___flsub
  4004     0328  1283               	bcf	3,5	;RP0=0, select bank0
  4005     0329  1303               	bcf	3,6	;RP1=0, select bank0
  4006     032A  084F               	movf	?___flsub+3,w
  4007     032B  00DB               	movwf	___flge@ff2+3
  4008     032C  084E               	movf	?___flsub+2,w
  4009     032D  00DA               	movwf	___flge@ff2+2
  4010     032E  084D               	movf	?___flsub+1,w
  4011     032F  00D9               	movwf	___flge@ff2+1
  4012     0330  084C               	movf	?___flsub,w
  4013     0331  00D8               	movwf	___flge@ff2
  4014     0332  160A  118A  275C  120A  118A  	fcall	___flge
  4015     0337  1C03               	btfss	3,0
  4016     0338  2B3A               	goto	u5521
  4017     0339  2B3B               	goto	u5520
  4018     033A                     u5521:
  4019     033A  2B49               	goto	l4130
  4020     033B                     u5520:
  4021     033B                     l4128:
  4022                           
  4023                           ;washing_machine_functions_def.c: 146:         {;washing_machine_functions_def.c: 147:  
      +                                     clcd_print("Wash ",(0x80 + 10));
  4024     033B  304B               	movlw	low (STR_34| (0+32768))
  4025     033C  1283               	bcf	3,5	;RP0=0, select bank0
  4026     033D  1303               	bcf	3,6	;RP1=0, select bank0
  4027     033E  00A0               	movwf	clcd_print@str
  4028     033F  3091               	movlw	high (STR_34| (0+32768))
  4029     0340  00A1               	movwf	clcd_print@str+1
  4030     0341  308A               	movlw	138
  4031     0342  00A2               	movwf	clcd_print@addr
  4032     0343  120A  118A  27BE  120A  118A  	fcall	_clcd_print
  4033                           
  4034                           ;washing_machine_functions_def.c: 148:         }
  4035     0348  2CAA               	goto	l4150
  4036     0349                     l4130:
  4037     0349  1683               	bsf	3,5	;RP0=1, select bank1
  4038     034A  1303               	bcf	3,6	;RP1=0, select bank1
  4039     034B  0851               	movf	(_wash_time+3)^(0+128),w
  4040     034C  1283               	bcf	3,5	;RP0=0, select bank0
  4041     034D  1303               	bcf	3,6	;RP1=0, select bank0
  4042     034E  00CF               	movwf	___flsub@a+3
  4043     034F  1683               	bsf	3,5	;RP0=1, select bank1
  4044     0350  1303               	bcf	3,6	;RP1=0, select bank1
  4045     0351  0850               	movf	(_wash_time+2)^(0+128),w
  4046     0352  1283               	bcf	3,5	;RP0=0, select bank0
  4047     0353  1303               	bcf	3,6	;RP1=0, select bank0
  4048     0354  00CE               	movwf	___flsub@a+2
  4049     0355  1683               	bsf	3,5	;RP0=1, select bank1
  4050     0356  1303               	bcf	3,6	;RP1=0, select bank1
  4051     0357  084F               	movf	(_wash_time+1)^(0+128),w
  4052     0358  1283               	bcf	3,5	;RP0=0, select bank0
  4053     0359  1303               	bcf	3,6	;RP1=0, select bank0
  4054     035A  00CD               	movwf	___flsub@a+1
  4055     035B  1683               	bsf	3,5	;RP0=1, select bank1
  4056     035C  1303               	bcf	3,6	;RP1=0, select bank1
  4057     035D  084E               	movf	_wash_time^(0+128),w
  4058     035E  1283               	bcf	3,5	;RP0=0, select bank0
  4059     035F  1303               	bcf	3,6	;RP1=0, select bank0
  4060     0360  00CC               	movwf	___flsub@a
  4061     0361  1683               	bsf	3,5	;RP0=1, select bank1
  4062     0362  1303               	bcf	3,6	;RP1=0, select bank1
  4063     0363  0845               	movf	(_time+3)^(0+128),w
  4064     0364  1283               	bcf	3,5	;RP0=0, select bank0
  4065     0365  1303               	bcf	3,6	;RP1=0, select bank0
  4066     0366  00D3               	movwf	___flsub@b+3
  4067     0367  1683               	bsf	3,5	;RP0=1, select bank1
  4068     0368  1303               	bcf	3,6	;RP1=0, select bank1
  4069     0369  0844               	movf	(_time+2)^(0+128),w
  4070     036A  1283               	bcf	3,5	;RP0=0, select bank0
  4071     036B  1303               	bcf	3,6	;RP1=0, select bank0
  4072     036C  00D2               	movwf	___flsub@b+2
  4073     036D  1683               	bsf	3,5	;RP0=1, select bank1
  4074     036E  1303               	bcf	3,6	;RP1=0, select bank1
  4075     036F  0843               	movf	(_time+1)^(0+128),w
  4076     0370  1283               	bcf	3,5	;RP0=0, select bank0
  4077     0371  1303               	bcf	3,6	;RP1=0, select bank0
  4078     0372  00D1               	movwf	___flsub@b+1
  4079     0373  1683               	bsf	3,5	;RP0=1, select bank1
  4080     0374  1303               	bcf	3,6	;RP1=0, select bank1
  4081     0375  0842               	movf	_time^(0+128),w
  4082     0376  1283               	bcf	3,5	;RP0=0, select bank0
  4083     0377  1303               	bcf	3,6	;RP1=0, select bank0
  4084     0378  00D0               	movwf	___flsub@b
  4085     0379  160A  118A  23BC  120A  118A  	fcall	___flsub
  4086     037E  1283               	bcf	3,5	;RP0=0, select bank0
  4087     037F  1303               	bcf	3,6	;RP1=0, select bank0
  4088     0380  084F               	movf	?___flsub+3,w
  4089     0381  00E8               	movwf	_run_program$838+3
  4090     0382  084E               	movf	?___flsub+2,w
  4091     0383  00E7               	movwf	_run_program$838+2
  4092     0384  084D               	movf	?___flsub+1,w
  4093     0385  00E6               	movwf	_run_program$838+1
  4094     0386  084C               	movf	?___flsub,w
  4095     0387  00E5               	movwf	_run_program$838
  4096     0388  1683               	bsf	3,5	;RP0=1, select bank1
  4097     0389  1303               	bcf	3,6	;RP1=0, select bank1
  4098     038A  0855               	movf	(_total_time+3)^(0+128),w
  4099     038B  1283               	bcf	3,5	;RP0=0, select bank0
  4100     038C  1303               	bcf	3,6	;RP1=0, select bank0
  4101     038D  00D7               	movwf	___flge@ff1+3
  4102     038E  1683               	bsf	3,5	;RP0=1, select bank1
  4103     038F  1303               	bcf	3,6	;RP1=0, select bank1
  4104     0390  0854               	movf	(_total_time+2)^(0+128),w
  4105     0391  1283               	bcf	3,5	;RP0=0, select bank0
  4106     0392  1303               	bcf	3,6	;RP1=0, select bank0
  4107     0393  00D6               	movwf	___flge@ff1+2
  4108     0394  1683               	bsf	3,5	;RP0=1, select bank1
  4109     0395  1303               	bcf	3,6	;RP1=0, select bank1
  4110     0396  0853               	movf	(_total_time+1)^(0+128),w
  4111     0397  1283               	bcf	3,5	;RP0=0, select bank0
  4112     0398  1303               	bcf	3,6	;RP1=0, select bank0
  4113     0399  00D5               	movwf	___flge@ff1+1
  4114     039A  1683               	bsf	3,5	;RP0=1, select bank1
  4115     039B  1303               	bcf	3,6	;RP1=0, select bank1
  4116     039C  0852               	movf	_total_time^(0+128),w
  4117     039D  1283               	bcf	3,5	;RP0=0, select bank0
  4118     039E  1303               	bcf	3,6	;RP1=0, select bank0
  4119     039F  00D4               	movwf	___flge@ff1
  4120     03A0  1683               	bsf	3,5	;RP0=1, select bank1
  4121     03A1  1303               	bcf	3,6	;RP1=0, select bank1
  4122     03A2  0849               	movf	(_spin_time+3)^(0+128),w
  4123     03A3  1283               	bcf	3,5	;RP0=0, select bank0
  4124     03A4  1303               	bcf	3,6	;RP1=0, select bank0
  4125     03A5  00CF               	movwf	___flsub@a+3
  4126     03A6  1683               	bsf	3,5	;RP0=1, select bank1
  4127     03A7  1303               	bcf	3,6	;RP1=0, select bank1
  4128     03A8  0848               	movf	(_spin_time+2)^(0+128),w
  4129     03A9  1283               	bcf	3,5	;RP0=0, select bank0
  4130     03AA  1303               	bcf	3,6	;RP1=0, select bank0
  4131     03AB  00CE               	movwf	___flsub@a+2
  4132     03AC  1683               	bsf	3,5	;RP0=1, select bank1
  4133     03AD  1303               	bcf	3,6	;RP1=0, select bank1
  4134     03AE  0847               	movf	(_spin_time+1)^(0+128),w
  4135     03AF  1283               	bcf	3,5	;RP0=0, select bank0
  4136     03B0  1303               	bcf	3,6	;RP1=0, select bank0
  4137     03B1  00CD               	movwf	___flsub@a+1
  4138     03B2  1683               	bsf	3,5	;RP0=1, select bank1
  4139     03B3  1303               	bcf	3,6	;RP1=0, select bank1
  4140     03B4  0846               	movf	_spin_time^(0+128),w
  4141     03B5  1283               	bcf	3,5	;RP0=0, select bank0
  4142     03B6  1303               	bcf	3,6	;RP1=0, select bank0
  4143     03B7  00CC               	movwf	___flsub@a
  4144     03B8  0868               	movf	_run_program$838+3,w
  4145     03B9  00D3               	movwf	___flsub@b+3
  4146     03BA  0867               	movf	_run_program$838+2,w
  4147     03BB  00D2               	movwf	___flsub@b+2
  4148     03BC  0866               	movf	_run_program$838+1,w
  4149     03BD  00D1               	movwf	___flsub@b+1
  4150     03BE  0865               	movf	_run_program$838,w
  4151     03BF  00D0               	movwf	___flsub@b
  4152     03C0  160A  118A  23BC  120A  118A  	fcall	___flsub
  4153     03C5  1283               	bcf	3,5	;RP0=0, select bank0
  4154     03C6  1303               	bcf	3,6	;RP1=0, select bank0
  4155     03C7  084F               	movf	?___flsub+3,w
  4156     03C8  00DB               	movwf	___flge@ff2+3
  4157     03C9  084E               	movf	?___flsub+2,w
  4158     03CA  00DA               	movwf	___flge@ff2+2
  4159     03CB  084D               	movf	?___flsub+1,w
  4160     03CC  00D9               	movwf	___flge@ff2+1
  4161     03CD  084C               	movf	?___flsub,w
  4162     03CE  00D8               	movwf	___flge@ff2
  4163     03CF  160A  118A  275C  120A  118A  	fcall	___flge
  4164     03D4  1C03               	btfss	3,0
  4165     03D5  2BD7               	goto	u5531
  4166     03D6  2BD8               	goto	u5530
  4167     03D7                     u5531:
  4168     03D7  2BE6               	goto	l4134
  4169     03D8                     u5530:
  4170     03D8                     l4132:
  4171                           
  4172                           ;washing_machine_functions_def.c: 150:         {;washing_machine_functions_def.c: 151:  
      +                                     clcd_print("Rinse ",(0x80 + 10));
  4173     03D8  3036               	movlw	low (STR_35| (0+32768))
  4174     03D9  1283               	bcf	3,5	;RP0=0, select bank0
  4175     03DA  1303               	bcf	3,6	;RP1=0, select bank0
  4176     03DB  00A0               	movwf	clcd_print@str
  4177     03DC  3091               	movlw	high (STR_35| (0+32768))
  4178     03DD  00A1               	movwf	clcd_print@str+1
  4179     03DE  308A               	movlw	138
  4180     03DF  00A2               	movwf	clcd_print@addr
  4181     03E0  120A  118A  27BE  120A  118A  	fcall	_clcd_print
  4182                           
  4183                           ;washing_machine_functions_def.c: 152:         }
  4184     03E5  2CAA               	goto	l4150
  4185     03E6                     l4134:
  4186                           
  4187                           ;washing_machine_functions_def.c: 154:         {;washing_machine_functions_def.c: 155:  
      +                                     clcd_print("Spin ",(0x80 + 10));
  4188     03E6  3057               	movlw	low (STR_36| (0+32768))
  4189     03E7  1283               	bcf	3,5	;RP0=0, select bank0
  4190     03E8  1303               	bcf	3,6	;RP1=0, select bank0
  4191     03E9  00A0               	movwf	clcd_print@str
  4192     03EA  3091               	movlw	high (STR_36| (0+32768))
  4193     03EB  00A1               	movwf	clcd_print@str+1
  4194     03EC  308A               	movlw	138
  4195     03ED  00A2               	movwf	clcd_print@addr
  4196     03EE  120A  118A  27BE  120A  118A  	fcall	_clcd_print
  4197     03F3  2CAA               	goto	l4150
  4198     03F4                     l4136:
  4199     03F4  3008               	movlw	8
  4200     03F5  066A               	xorwf	_program_no,w
  4201     03F6  1D03               	btfss	3,2
  4202     03F7  2BF9               	goto	u5541
  4203     03F8  2BFA               	goto	u5540
  4204     03F9                     u5541:
  4205     03F9  2C8D               	goto	l4144
  4206     03FA                     u5540:
  4207     03FA                     l4138:
  4208                           
  4209                           ;washing_machine_functions_def.c: 159:     {;washing_machine_functions_def.c: 160:      
      +                             if( total_time >= (time - (0.40 * time)))
  4210     03FA  1683               	bsf	3,5	;RP0=1, select bank1
  4211     03FB  1303               	bcf	3,6	;RP1=0, select bank1
  4212     03FC  0855               	movf	(_total_time+3)^(0+128),w
  4213     03FD  1283               	bcf	3,5	;RP0=0, select bank0
  4214     03FE  1303               	bcf	3,6	;RP1=0, select bank0
  4215     03FF  00D7               	movwf	___flge@ff1+3
  4216     0400  1683               	bsf	3,5	;RP0=1, select bank1
  4217     0401  1303               	bcf	3,6	;RP1=0, select bank1
  4218     0402  0854               	movf	(_total_time+2)^(0+128),w
  4219     0403  1283               	bcf	3,5	;RP0=0, select bank0
  4220     0404  1303               	bcf	3,6	;RP1=0, select bank0
  4221     0405  00D6               	movwf	___flge@ff1+2
  4222     0406  1683               	bsf	3,5	;RP0=1, select bank1
  4223     0407  1303               	bcf	3,6	;RP1=0, select bank1
  4224     0408  0853               	movf	(_total_time+1)^(0+128),w
  4225     0409  1283               	bcf	3,5	;RP0=0, select bank0
  4226     040A  1303               	bcf	3,6	;RP1=0, select bank0
  4227     040B  00D5               	movwf	___flge@ff1+1
  4228     040C  1683               	bsf	3,5	;RP0=1, select bank1
  4229     040D  1303               	bcf	3,6	;RP1=0, select bank1
  4230     040E  0852               	movf	_total_time^(0+128),w
  4231     040F  1283               	bcf	3,5	;RP0=0, select bank0
  4232     0410  1303               	bcf	3,6	;RP1=0, select bank0
  4233     0411  00D4               	movwf	___flge@ff1
  4234     0412  303E               	movlw	62
  4235     0413  00B5               	movwf	___flmul@b+3
  4236     0414  30CC               	movlw	204
  4237     0415  00B4               	movwf	___flmul@b+2
  4238     0416  30CC               	movlw	204
  4239     0417  00B3               	movwf	___flmul@b+1
  4240     0418  30CD               	movlw	205
  4241     0419  00B2               	movwf	___flmul@b
  4242     041A  1683               	bsf	3,5	;RP0=1, select bank1
  4243     041B  1303               	bcf	3,6	;RP1=0, select bank1
  4244     041C  0845               	movf	(_time+3)^(0+128),w
  4245     041D  1283               	bcf	3,5	;RP0=0, select bank0
  4246     041E  1303               	bcf	3,6	;RP1=0, select bank0
  4247     041F  00B9               	movwf	___flmul@a+3
  4248     0420  1683               	bsf	3,5	;RP0=1, select bank1
  4249     0421  1303               	bcf	3,6	;RP1=0, select bank1
  4250     0422  0844               	movf	(_time+2)^(0+128),w
  4251     0423  1283               	bcf	3,5	;RP0=0, select bank0
  4252     0424  1303               	bcf	3,6	;RP1=0, select bank0
  4253     0425  00B8               	movwf	___flmul@a+2
  4254     0426  1683               	bsf	3,5	;RP0=1, select bank1
  4255     0427  1303               	bcf	3,6	;RP1=0, select bank1
  4256     0428  0843               	movf	(_time+1)^(0+128),w
  4257     0429  1283               	bcf	3,5	;RP0=0, select bank0
  4258     042A  1303               	bcf	3,6	;RP1=0, select bank0
  4259     042B  00B7               	movwf	___flmul@a+1
  4260     042C  1683               	bsf	3,5	;RP0=1, select bank1
  4261     042D  1303               	bcf	3,6	;RP1=0, select bank1
  4262     042E  0842               	movf	_time^(0+128),w
  4263     042F  1283               	bcf	3,5	;RP0=0, select bank0
  4264     0430  1303               	bcf	3,6	;RP1=0, select bank0
  4265     0431  00B6               	movwf	___flmul@a
  4266     0432  120A  158A  24BE  120A  118A  	fcall	___flmul
  4267     0437  1283               	bcf	3,5	;RP0=0, select bank0
  4268     0438  1303               	bcf	3,6	;RP1=0, select bank0
  4269     0439  0835               	movf	?___flmul+3,w
  4270     043A  00CF               	movwf	___flsub@a+3
  4271     043B  0834               	movf	?___flmul+2,w
  4272     043C  00CE               	movwf	___flsub@a+2
  4273     043D  0833               	movf	?___flmul+1,w
  4274     043E  00CD               	movwf	___flsub@a+1
  4275     043F  0832               	movf	?___flmul,w
  4276     0440  00CC               	movwf	___flsub@a
  4277     0441  1683               	bsf	3,5	;RP0=1, select bank1
  4278     0442  1303               	bcf	3,6	;RP1=0, select bank1
  4279     0443  0845               	movf	(_time+3)^(0+128),w
  4280     0444  1283               	bcf	3,5	;RP0=0, select bank0
  4281     0445  1303               	bcf	3,6	;RP1=0, select bank0
  4282     0446  00D3               	movwf	___flsub@b+3
  4283     0447  1683               	bsf	3,5	;RP0=1, select bank1
  4284     0448  1303               	bcf	3,6	;RP1=0, select bank1
  4285     0449  0844               	movf	(_time+2)^(0+128),w
  4286     044A  1283               	bcf	3,5	;RP0=0, select bank0
  4287     044B  1303               	bcf	3,6	;RP1=0, select bank0
  4288     044C  00D2               	movwf	___flsub@b+2
  4289     044D  1683               	bsf	3,5	;RP0=1, select bank1
  4290     044E  1303               	bcf	3,6	;RP1=0, select bank1
  4291     044F  0843               	movf	(_time+1)^(0+128),w
  4292     0450  1283               	bcf	3,5	;RP0=0, select bank0
  4293     0451  1303               	bcf	3,6	;RP1=0, select bank0
  4294     0452  00D1               	movwf	___flsub@b+1
  4295     0453  1683               	bsf	3,5	;RP0=1, select bank1
  4296     0454  1303               	bcf	3,6	;RP1=0, select bank1
  4297     0455  0842               	movf	_time^(0+128),w
  4298     0456  1283               	bcf	3,5	;RP0=0, select bank0
  4299     0457  1303               	bcf	3,6	;RP1=0, select bank0
  4300     0458  00D0               	movwf	___flsub@b
  4301     0459  160A  118A  23BC  120A  118A  	fcall	___flsub
  4302     045E  1283               	bcf	3,5	;RP0=0, select bank0
  4303     045F  1303               	bcf	3,6	;RP1=0, select bank0
  4304     0460  084F               	movf	?___flsub+3,w
  4305     0461  00DB               	movwf	___flge@ff2+3
  4306     0462  084E               	movf	?___flsub+2,w
  4307     0463  00DA               	movwf	___flge@ff2+2
  4308     0464  084D               	movf	?___flsub+1,w
  4309     0465  00D9               	movwf	___flge@ff2+1
  4310     0466  084C               	movf	?___flsub,w
  4311     0467  00D8               	movwf	___flge@ff2
  4312     0468  160A  118A  275C  120A  118A  	fcall	___flge
  4313     046D  1C03               	btfss	3,0
  4314     046E  2C70               	goto	u5551
  4315     046F  2C71               	goto	u5550
  4316     0470                     u5551:
  4317     0470  2C7F               	goto	l4142
  4318     0471                     u5550:
  4319     0471                     l4140:
  4320                           
  4321                           ;washing_machine_functions_def.c: 161:         {;washing_machine_functions_def.c: 162:  
      +                                     clcd_print("Rinse ",(0x80 + 10));
  4322     0471  3036               	movlw	low (STR_35| (0+32768))
  4323     0472  1283               	bcf	3,5	;RP0=0, select bank0
  4324     0473  1303               	bcf	3,6	;RP1=0, select bank0
  4325     0474  00A0               	movwf	clcd_print@str
  4326     0475  3091               	movlw	high (STR_35| (0+32768))
  4327     0476  00A1               	movwf	clcd_print@str+1
  4328     0477  308A               	movlw	138
  4329     0478  00A2               	movwf	clcd_print@addr
  4330     0479  120A  118A  27BE  120A  118A  	fcall	_clcd_print
  4331                           
  4332                           ;washing_machine_functions_def.c: 163:         }
  4333     047E  2CAA               	goto	l4150
  4334     047F                     l4142:
  4335                           
  4336                           ;washing_machine_functions_def.c: 165:         {;washing_machine_functions_def.c: 166:  
      +                                     clcd_print("Spin ",(0x80 + 10));
  4337     047F  3057               	movlw	low (STR_36| (0+32768))
  4338     0480  1283               	bcf	3,5	;RP0=0, select bank0
  4339     0481  1303               	bcf	3,6	;RP1=0, select bank0
  4340     0482  00A0               	movwf	clcd_print@str
  4341     0483  3091               	movlw	high (STR_36| (0+32768))
  4342     0484  00A1               	movwf	clcd_print@str+1
  4343     0485  308A               	movlw	138
  4344     0486  00A2               	movwf	clcd_print@addr
  4345     0487  120A  118A  27BE  120A  118A  	fcall	_clcd_print
  4346     048C  2CAA               	goto	l4150
  4347     048D                     l4144:
  4348     048D  3009               	movlw	9
  4349     048E  066A               	xorwf	_program_no,w
  4350     048F  1D03               	btfss	3,2
  4351     0490  2C92               	goto	u5561
  4352     0491  2C93               	goto	u5560
  4353     0492                     u5561:
  4354     0492  2C9F               	goto	l4148
  4355     0493                     u5560:
  4356     0493                     l4146:
  4357                           
  4358                           ;washing_machine_functions_def.c: 170:     {;washing_machine_functions_def.c: 171:      
      +                             clcd_print("Rinse ",(0x80 + 10));
  4359     0493  3036               	movlw	low (STR_35| (0+32768))
  4360     0494  00A0               	movwf	clcd_print@str
  4361     0495  3091               	movlw	high (STR_35| (0+32768))
  4362     0496  00A1               	movwf	clcd_print@str+1
  4363     0497  308A               	movlw	138
  4364     0498  00A2               	movwf	clcd_print@addr
  4365     0499  120A  118A  27BE  120A  118A  	fcall	_clcd_print
  4366                           
  4367                           ;washing_machine_functions_def.c: 172:     }
  4368     049E  2CAA               	goto	l4150
  4369     049F                     l4148:
  4370                           
  4371                           ;washing_machine_functions_def.c: 174:         {;washing_machine_functions_def.c: 175:  
      +                                     clcd_print("wash ",(0x80 + 10));
  4372     049F  3051               	movlw	low (STR_40| (0+32768))
  4373     04A0  00A0               	movwf	clcd_print@str
  4374     04A1  3091               	movlw	high (STR_40| (0+32768))
  4375     04A2  00A1               	movwf	clcd_print@str+1
  4376     04A3  308A               	movlw	138
  4377     04A4  00A2               	movwf	clcd_print@addr
  4378     04A5  120A  118A  27BE  120A  118A  	fcall	_clcd_print
  4379     04AA                     l4150:
  4380                           
  4381                           ;washing_machine_functions_def.c: 178:         clcd_putch(min/10 + '0',(0xC0 + 6));
  4382     04AA  30C6               	movlw	198
  4383     04AB  00F8               	movwf	clcd_putch@addr
  4384     04AC  300A               	movlw	10
  4385     04AD  00F2               	movwf	___awdiv@divisor
  4386     04AE  3000               	movlw	0
  4387     04AF  00F3               	movwf	___awdiv@divisor+1
  4388     04B0  1283               	bcf	3,5	;RP0=0, select bank0
  4389     04B1  1303               	bcf	3,6	;RP1=0, select bank0
  4390     04B2  086B               	movf	_min,w
  4391     04B3  00E0               	movwf	??_run_program
  4392     04B4  01E1               	clrf	??_run_program+1
  4393     04B5  0860               	movf	??_run_program,w
  4394     04B6  00F4               	movwf	___awdiv@dividend
  4395     04B7  0861               	movf	??_run_program+1,w
  4396     04B8  00F5               	movwf	___awdiv@dividend+1
  4397     04B9  160A  118A  257D  120A  118A  	fcall	___awdiv
  4398     04BE  0872               	movf	?___awdiv,w
  4399     04BF  3E30               	addlw	48
  4400     04C0  160A  118A  2365  120A  118A  	fcall	_clcd_putch
  4401     04C5                     l4152:
  4402                           
  4403                           ;washing_machine_functions_def.c: 179:         clcd_putch(min%10 + '0',(0xC0 + 7));
  4404     04C5  30C7               	movlw	199
  4405     04C6  00F8               	movwf	clcd_putch@addr
  4406     04C7  300A               	movlw	10
  4407     04C8  00F2               	movwf	___awmod@divisor
  4408     04C9  3000               	movlw	0
  4409     04CA  00F3               	movwf	___awmod@divisor+1
  4410     04CB  1283               	bcf	3,5	;RP0=0, select bank0
  4411     04CC  1303               	bcf	3,6	;RP1=0, select bank0
  4412     04CD  086B               	movf	_min,w
  4413     04CE  00E0               	movwf	??_run_program
  4414     04CF  01E1               	clrf	??_run_program+1
  4415     04D0  0860               	movf	??_run_program,w
  4416     04D1  00F4               	movwf	___awmod@dividend
  4417     04D2  0861               	movf	??_run_program+1,w
  4418     04D3  00F5               	movwf	___awmod@dividend+1
  4419     04D4  160A  118A  2526  120A  118A  	fcall	___awmod
  4420     04D9  0872               	movf	?___awmod,w
  4421     04DA  3E30               	addlw	48
  4422     04DB  160A  118A  2365  120A  118A  	fcall	_clcd_putch
  4423     04E0                     l4154:
  4424                           
  4425                           ;washing_machine_functions_def.c: 180:         clcd_putch(':',(0xC0 + 8));
  4426     04E0  30C8               	movlw	200
  4427     04E1  00F8               	movwf	clcd_putch@addr
  4428     04E2  303A               	movlw	58
  4429     04E3  160A  118A  2365  120A  118A  	fcall	_clcd_putch
  4430     04E8                     l4156:
  4431                           
  4432                           ;washing_machine_functions_def.c: 181:         clcd_putch(sec/10 + '0',(0xC0 + 9));
  4433     04E8  30C9               	movlw	201
  4434     04E9  00F8               	movwf	clcd_putch@addr
  4435     04EA  300A               	movlw	10
  4436     04EB  00F2               	movwf	___awdiv@divisor
  4437     04EC  3000               	movlw	0
  4438     04ED  00F3               	movwf	___awdiv@divisor+1
  4439     04EE  1283               	bcf	3,5	;RP0=0, select bank0
  4440     04EF  1303               	bcf	3,6	;RP1=0, select bank0
  4441     04F0  086C               	movf	_sec,w
  4442     04F1  00E0               	movwf	??_run_program
  4443     04F2  01E1               	clrf	??_run_program+1
  4444     04F3  0860               	movf	??_run_program,w
  4445     04F4  00F4               	movwf	___awdiv@dividend
  4446     04F5  0861               	movf	??_run_program+1,w
  4447     04F6  00F5               	movwf	___awdiv@dividend+1
  4448     04F7  160A  118A  257D  120A  118A  	fcall	___awdiv
  4449     04FC  0872               	movf	?___awdiv,w
  4450     04FD  3E30               	addlw	48
  4451     04FE  160A  118A  2365  120A  118A  	fcall	_clcd_putch
  4452     0503                     l4158:
  4453                           
  4454                           ;washing_machine_functions_def.c: 182:         clcd_putch(sec%10 + '0',(0xC0 + 10));
  4455     0503  30CA               	movlw	202
  4456     0504  00F8               	movwf	clcd_putch@addr
  4457     0505  300A               	movlw	10
  4458     0506  00F2               	movwf	___awmod@divisor
  4459     0507  3000               	movlw	0
  4460     0508  00F3               	movwf	___awmod@divisor+1
  4461     0509  1283               	bcf	3,5	;RP0=0, select bank0
  4462     050A  1303               	bcf	3,6	;RP1=0, select bank0
  4463     050B  086C               	movf	_sec,w
  4464     050C  00E0               	movwf	??_run_program
  4465     050D  01E1               	clrf	??_run_program+1
  4466     050E  0860               	movf	??_run_program,w
  4467     050F  00F4               	movwf	___awmod@dividend
  4468     0510  0861               	movf	??_run_program+1,w
  4469     0511  00F5               	movwf	___awmod@dividend+1
  4470     0512  160A  118A  2526  120A  118A  	fcall	___awmod
  4471     0517  0872               	movf	?___awmod,w
  4472     0518  3E30               	addlw	48
  4473     0519  160A  118A  2365  120A  118A  	fcall	_clcd_putch
  4474     051E                     l4160:
  4475                           
  4476                           ;washing_machine_functions_def.c: 183:         if(min ==0 && sec == 0)
  4477     051E  1283               	bcf	3,5	;RP0=0, select bank0
  4478     051F  1303               	bcf	3,6	;RP1=0, select bank0
  4479     0520  086B               	movf	_min,w
  4480     0521  1D03               	btfss	3,2
  4481     0522  2D24               	goto	u5571
  4482     0523  2D25               	goto	u5570
  4483     0524                     u5571:
  4484     0524  2D65               	goto	l247
  4485     0525                     u5570:
  4486     0525                     l4162:
  4487     0525  086C               	movf	_sec,w
  4488     0526  1D03               	btfss	3,2
  4489     0527  2D29               	goto	u5581
  4490     0528  2D2A               	goto	u5580
  4491     0529                     u5581:
  4492     0529  2D65               	goto	l247
  4493     052A                     u5580:
  4494     052A                     l4164:
  4495                           
  4496                           ;washing_machine_functions_def.c: 184:         {;washing_machine_functions_def.c: 185:  
      +                                     clear_screen();
  4497     052A  160A  118A  2341  120A  118A  	fcall	_clear_screen
  4498     052F                     l4166:
  4499                           
  4500                           ;washing_machine_functions_def.c: 186:             RC2 = 0;
  4501     052F  1283               	bcf	3,5	;RP0=0, select bank0
  4502     0530  1303               	bcf	3,6	;RP1=0, select bank0
  4503     0531  1107               	bcf	7,2	;volatile
  4504     0532                     l4168:
  4505                           
  4506                           ;washing_machine_functions_def.c: 187:             RC1 = 1;
  4507     0532  1487               	bsf	7,1	;volatile
  4508     0533                     l4170:
  4509                           
  4510                           ;washing_machine_functions_def.c: 188:             clcd_print("Program complete",(0x80 +
      +                           0));
  4511     0533  3000               	movlw	low (STR_41| (0+32768))
  4512     0534  00A0               	movwf	clcd_print@str
  4513     0535  3090               	movlw	high (STR_41| (0+32768))
  4514     0536  00A1               	movwf	clcd_print@str+1
  4515     0537  3080               	movlw	128
  4516     0538  00A2               	movwf	clcd_print@addr
  4517     0539  120A  118A  27BE  120A  118A  	fcall	_clcd_print
  4518     053E                     l4172:
  4519                           
  4520                           ;washing_machine_functions_def.c: 189:             clcd_print("Remove cloths",(0xC0 + 0)
      +                          );
  4521     053E  3050               	movlw	low (STR_42| (0+32768))
  4522     053F  1283               	bcf	3,5	;RP0=0, select bank0
  4523     0540  1303               	bcf	3,6	;RP1=0, select bank0
  4524     0541  00A0               	movwf	clcd_print@str
  4525     0542  3090               	movlw	high (STR_42| (0+32768))
  4526     0543  00A1               	movwf	clcd_print@str+1
  4527     0544  30C0               	movlw	192
  4528     0545  00A2               	movwf	clcd_print@addr
  4529     0546  120A  118A  27BE  120A  118A  	fcall	_clcd_print
  4530     054B                     l4174:
  4531                           
  4532                           ;washing_machine_functions_def.c: 190:             _delay((unsigned long)((2000)*(200000
      +                          00/4000.0)));
  4533     054B  3033               	movlw	51
  4534     054C  1283               	bcf	3,5	;RP0=0, select bank0
  4535     054D  1303               	bcf	3,6	;RP1=0, select bank0
  4536     054E  00E2               	movwf	??_run_program+2
  4537     054F  30BB               	movlw	187
  4538     0550  00E1               	movwf	??_run_program+1
  4539     0551  30DF               	movlw	223
  4540     0552  00E0               	movwf	??_run_program
  4541     0553                     u5717:
  4542     0553  0BE0               	decfsz	??_run_program,f
  4543     0554  2D53               	goto	u5717
  4544     0555  0BE1               	decfsz	??_run_program+1,f
  4545     0556  2D53               	goto	u5717
  4546     0557  0BE2               	decfsz	??_run_program+2,f
  4547     0558  2D53               	goto	u5717
  4548     0559                     l4176:
  4549                           
  4550                           ;washing_machine_functions_def.c: 191:             RC1 = 0;
  4551     0559  1283               	bcf	3,5	;RP0=0, select bank0
  4552     055A  1303               	bcf	3,6	;RP1=0, select bank0
  4553     055B  1087               	bcf	7,1	;volatile
  4554     055C                     l4178:
  4555                           
  4556                           ;washing_machine_functions_def.c: 192:             operational_mode = 0x01;
  4557     055C  3001               	movlw	1
  4558     055D  00ED               	movwf	_operational_mode
  4559     055E                     l4180:
  4560                           
  4561                           ;washing_machine_functions_def.c: 193:             reset_flag = 0x11;
  4562     055E  3011               	movlw	17
  4563     055F  00FB               	movwf	_reset_flag
  4564     0560                     l4182:
  4565                           
  4566                           ;washing_machine_functions_def.c: 194:             clear_screen();
  4567     0560  160A  118A  2341  120A  118A  	fcall	_clear_screen
  4568     0565                     l247:
  4569     0565  0008               	return
  4570     0566                     __end_of_run_program:
  4571                           
  4572                           	psect	text5
  4573     15E2                     __ptext5:	
  4574 ;; *************** function _door_status_check *****************
  4575 ;; Defined at:
  4576 ;;		line 396 in file "washing_machine_functions_def.c"
  4577 ;; Parameters:    Size  Location     Type
  4578 ;;		None
  4579 ;; Auto vars:     Size  Location     Type
  4580 ;;		None
  4581 ;; Return value:  Size  Location     Type
  4582 ;;                  1    wreg      void 
  4583 ;; Registers used:
  4584 ;;		wreg, fsr0l, fsr0h, status,2, status,0, btemp+1, pclath, cstack
  4585 ;; Tracked objects:
  4586 ;;		On entry : 0/0
  4587 ;;		On exit  : 0/0
  4588 ;;		Unchanged: 0/0
  4589 ;; Data sizes:     COMMON   BANK0   BANK1   BANK3   BANK2
  4590 ;;      Params:         0       0       0       0       0
  4591 ;;      Locals:         0       0       0       0       0
  4592 ;;      Temps:          0       0       0       0       0
  4593 ;;      Totals:         0       0       0       0       0
  4594 ;;Total ram usage:        0 bytes
  4595 ;; Hardware stack levels used: 1
  4596 ;; Hardware stack levels required when called: 3
  4597 ;; This function calls:
  4598 ;;		_clcd_print
  4599 ;;		_clear_screen
  4600 ;; This function is called by:
  4601 ;;		_run_program
  4602 ;; This function uses a non-reentrant model
  4603 ;;
  4604                           
  4605     15E2                     _door_status_check:	
  4606                           ;psect for function _door_status_check
  4607                           
  4608     15E2                     l3198:	
  4609                           ;incstack = 0
  4610                           ; Regs used in _door_status_check: [wreg-fsr0h+status,2+status,0+btemp+1+pclath+cstack]
  4611                           
  4612                           
  4613                           ;washing_machine_functions_def.c: 398:     if(RB0 == 0)
  4614     15E2  1283               	bcf	3,5	;RP0=0, select bank0
  4615     15E3  1303               	bcf	3,6	;RP1=0, select bank0
  4616     15E4  1806               	btfsc	6,0	;volatile
  4617     15E5  2DE7               	goto	u4041
  4618     15E6  2DE8               	goto	u4040
  4619     15E7                     u4041:
  4620     15E7  2E4C               	goto	l355
  4621     15E8                     u4040:
  4622     15E8                     l3200:
  4623                           
  4624                           ;washing_machine_functions_def.c: 399:     {;washing_machine_functions_def.c: 400:      
      +                             RC2 = 0;
  4625     15E8  1107               	bcf	7,2	;volatile
  4626                           
  4627                           ;washing_machine_functions_def.c: 401:         TMR2ON = 0;
  4628     15E9  1112               	bcf	18,2	;volatile
  4629                           
  4630                           ;washing_machine_functions_def.c: 402:         RC1 = 1;
  4631     15EA  1487               	bsf	7,1	;volatile
  4632     15EB                     l3202:
  4633                           
  4634                           ;washing_machine_functions_def.c: 403:         clear_screen();
  4635     15EB  160A  118A  2341  160A  118A  	fcall	_clear_screen
  4636     15F0                     l3204:
  4637                           
  4638                           ;washing_machine_functions_def.c: 404:         clcd_print("Door is open",(0x80 + 0));
  4639     15F0  3079               	movlw	low (STR_43| (0+32768))
  4640     15F1  1283               	bcf	3,5	;RP0=0, select bank0
  4641     15F2  1303               	bcf	3,6	;RP1=0, select bank0
  4642     15F3  00A0               	movwf	clcd_print@str
  4643     15F4  3090               	movlw	high (STR_43| (0+32768))
  4644     15F5  00A1               	movwf	clcd_print@str+1
  4645     15F6  3080               	movlw	128
  4646     15F7  00A2               	movwf	clcd_print@addr
  4647     15F8  120A  118A  27BE  160A  118A  	fcall	_clcd_print
  4648     15FD                     l3206:
  4649                           
  4650                           ;washing_machine_functions_def.c: 405:         clcd_print("Pls close door",(0xC0 + 0));
  4651     15FD  3041               	movlw	low (STR_44| (0+32768))
  4652     15FE  1283               	bcf	3,5	;RP0=0, select bank0
  4653     15FF  1303               	bcf	3,6	;RP1=0, select bank0
  4654     1600  00A0               	movwf	clcd_print@str
  4655     1601  3090               	movlw	high (STR_44| (0+32768))
  4656     1602  00A1               	movwf	clcd_print@str+1
  4657     1603  30C0               	movlw	192
  4658     1604  00A2               	movwf	clcd_print@addr
  4659     1605  120A  118A  27BE  160A  118A  	fcall	_clcd_print
  4660     160A                     l352:	
  4661                           ;washing_machine_functions_def.c: 407:         {;washing_machine_functions_def.c: 409:  
      +                                 }
  4662                           
  4663                           
  4664                           ;washing_machine_functions_def.c: 406:         while(RB0 == 0)
  4665     160A  1283               	bcf	3,5	;RP0=0, select bank0
  4666     160B  1303               	bcf	3,6	;RP1=0, select bank0
  4667     160C  1C06               	btfss	6,0	;volatile
  4668     160D  2E0F               	goto	u4051
  4669     160E  2E10               	goto	u4050
  4670     160F                     u4051:
  4671     160F  2E0A               	goto	l352
  4672     1610                     u4050:
  4673     1610                     l354:
  4674                           
  4675                           ;washing_machine_functions_def.c: 410:         RC2 = 1;
  4676     1610  1507               	bsf	7,2	;volatile
  4677                           
  4678                           ;washing_machine_functions_def.c: 411:         TMR2ON = 1;
  4679     1611  1512               	bsf	18,2	;volatile
  4680                           
  4681                           ;washing_machine_functions_def.c: 412:         RC1 = 0;
  4682     1612  1087               	bcf	7,1	;volatile
  4683     1613                     l3208:
  4684                           
  4685                           ;washing_machine_functions_def.c: 413:         clear_screen();
  4686     1613  160A  118A  2341  160A  118A  	fcall	_clear_screen
  4687     1618                     l3210:
  4688                           
  4689                           ;washing_machine_functions_def.c: 414:         clcd_print("Function:",(0x80 + 0));
  4690     1618  30D6               	movlw	low (STR_30| (0+32768))
  4691     1619  1283               	bcf	3,5	;RP0=0, select bank0
  4692     161A  1303               	bcf	3,6	;RP1=0, select bank0
  4693     161B  00A0               	movwf	clcd_print@str
  4694     161C  3090               	movlw	high (STR_30| (0+32768))
  4695     161D  00A1               	movwf	clcd_print@str+1
  4696     161E  3080               	movlw	128
  4697     161F  00A2               	movwf	clcd_print@addr
  4698     1620  120A  118A  27BE  160A  118A  	fcall	_clcd_print
  4699     1625                     l3212:
  4700                           
  4701                           ;washing_machine_functions_def.c: 415:         clcd_print("Time",(0xC0 + 0));
  4702     1625  3069               	movlw	low (STR_29| (0+32768))
  4703     1626  1283               	bcf	3,5	;RP0=0, select bank0
  4704     1627  1303               	bcf	3,6	;RP1=0, select bank0
  4705     1628  00A0               	movwf	clcd_print@str
  4706     1629  3091               	movlw	high (STR_29| (0+32768))
  4707     162A  00A1               	movwf	clcd_print@str+1
  4708     162B  30C0               	movlw	192
  4709     162C  00A2               	movwf	clcd_print@addr
  4710     162D  120A  118A  27BE  160A  118A  	fcall	_clcd_print
  4711     1632                     l3214:
  4712                           
  4713                           ;washing_machine_functions_def.c: 416:         clcd_print("SW5:START",(0x90 + 0));
  4714     1632  30EA               	movlw	low (STR_32| (0+32768))
  4715     1633  1283               	bcf	3,5	;RP0=0, select bank0
  4716     1634  1303               	bcf	3,6	;RP1=0, select bank0
  4717     1635  00A0               	movwf	clcd_print@str
  4718     1636  3090               	movlw	high (STR_32| (0+32768))
  4719     1637  00A1               	movwf	clcd_print@str+1
  4720     1638  3090               	movlw	144
  4721     1639  00A2               	movwf	clcd_print@addr
  4722     163A  120A  118A  27BE  160A  118A  	fcall	_clcd_print
  4723     163F                     l3216:
  4724                           
  4725                           ;washing_machine_functions_def.c: 417:         clcd_print("SW6:PAUSE",(0xD0 + 0));
  4726     163F  30E0               	movlw	low (STR_33| (0+32768))
  4727     1640  1283               	bcf	3,5	;RP0=0, select bank0
  4728     1641  1303               	bcf	3,6	;RP1=0, select bank0
  4729     1642  00A0               	movwf	clcd_print@str
  4730     1643  3090               	movlw	high (STR_33| (0+32768))
  4731     1644  00A1               	movwf	clcd_print@str+1
  4732     1645  30D0               	movlw	208
  4733     1646  00A2               	movwf	clcd_print@addr
  4734     1647  120A  118A  27BE  160A  118A  	fcall	_clcd_print
  4735     164C                     l355:
  4736     164C  0008               	return
  4737     164D                     __end_of_door_status_check:
  4738                           
  4739                           	psect	text6
  4740     1341                     __ptext6:	
  4741 ;; *************** function _clear_screen *****************
  4742 ;; Defined at:
  4743 ;;		line 421 in file "washing_machine_functions_def.c"
  4744 ;; Parameters:    Size  Location     Type
  4745 ;;		None
  4746 ;; Auto vars:     Size  Location     Type
  4747 ;;		None
  4748 ;; Return value:  Size  Location     Type
  4749 ;;                  1    wreg      void 
  4750 ;; Registers used:
  4751 ;;		wreg, status,2, status,0, pclath, cstack
  4752 ;; Tracked objects:
  4753 ;;		On entry : 0/0
  4754 ;;		On exit  : 0/0
  4755 ;;		Unchanged: 0/0
  4756 ;; Data sizes:     COMMON   BANK0   BANK1   BANK3   BANK2
  4757 ;;      Params:         0       0       0       0       0
  4758 ;;      Locals:         0       0       0       0       0
  4759 ;;      Temps:          2       0       0       0       0
  4760 ;;      Totals:         2       0       0       0       0
  4761 ;;Total ram usage:        2 bytes
  4762 ;; Hardware stack levels used: 1
  4763 ;; Hardware stack levels required when called: 2
  4764 ;; This function calls:
  4765 ;;		_clcd_write
  4766 ;; This function is called by:
  4767 ;;		_main
  4768 ;;		_washing_program_display
  4769 ;;		_water_level_screen
  4770 ;;		_run_program
  4771 ;;		_door_status_check
  4772 ;; This function uses a non-reentrant model
  4773 ;;
  4774                           
  4775     1341                     _clear_screen:	
  4776                           ;psect for function _clear_screen
  4777                           
  4778     1341                     l2948:	
  4779                           ;incstack = 0
  4780                           ; Regs used in _clear_screen: [wreg+status,2+status,0+pclath+cstack]
  4781                           
  4782                           
  4783                           ;washing_machine_functions_def.c: 423:     clcd_write(0x01, 0);
  4784     1341  01F2               	clrf	clcd_write@mode
  4785     1342  3001               	movlw	1
  4786     1343  160A  118A  237A  160A  118A  	fcall	_clcd_write
  4787     1348                     l2950:
  4788                           
  4789                           ;washing_machine_functions_def.c: 424:     _delay((unsigned long)((500)*(20000000/400000
      +                          0.0)));
  4790     1348  3004               	movlw	4
  4791     1349  00F7               	movwf	??_clear_screen+1
  4792     134A  303D               	movlw	61
  4793     134B  00F6               	movwf	??_clear_screen
  4794     134C                     u5727:
  4795     134C  0BF6               	decfsz	??_clear_screen,f
  4796     134D  2B4C               	goto	u5727
  4797     134E  0BF7               	decfsz	??_clear_screen+1,f
  4798     134F  2B4C               	goto	u5727
  4799     1350  2B51               	nop2
  4800     1351                     l358:
  4801     1351  0008               	return
  4802     1352                     __end_of_clear_screen:
  4803                           
  4804                           	psect	text7
  4805     0892                     __ptext7:	
  4806 ;; *************** function ___xxtofl *****************
  4807 ;; Defined at:
  4808 ;;		line 10 in file "C:\Program Files\Microchip\xc8\v3.00\pic\sources\c99\common\xxtofl.c"
  4809 ;; Parameters:    Size  Location     Type
  4810 ;;  sign            1    wreg     unsigned char 
  4811 ;;  val             4    4[BANK0 ] long 
  4812 ;; Auto vars:     Size  Location     Type
  4813 ;;  sign            1   12[BANK0 ] unsigned char 
  4814 ;;  arg             4   14[BANK0 ] unsigned long 
  4815 ;;  exp             1   13[BANK0 ] unsigned char 
  4816 ;; Return value:  Size  Location     Type
  4817 ;;                  4    4[BANK0 ] unsigned char 
  4818 ;; Registers used:
  4819 ;;		wreg, status,2, status,0
  4820 ;; Tracked objects:
  4821 ;;		On entry : 0/0
  4822 ;;		On exit  : 0/0
  4823 ;;		Unchanged: 0/0
  4824 ;; Data sizes:     COMMON   BANK0   BANK1   BANK3   BANK2
  4825 ;;      Params:         0       4       0       0       0
  4826 ;;      Locals:         0       6       0       0       0
  4827 ;;      Temps:          0       4       0       0       0
  4828 ;;      Totals:         0      14       0       0       0
  4829 ;;Total ram usage:       14 bytes
  4830 ;; Hardware stack levels used: 1
  4831 ;; Hardware stack levels required when called: 1
  4832 ;; This function calls:
  4833 ;;		Nothing
  4834 ;; This function is called by:
  4835 ;;		_run_program
  4836 ;; This function uses a non-reentrant model
  4837 ;;
  4838                           
  4839     0892                     ___xxtofl:	
  4840                           ;psect for function ___xxtofl
  4841                           
  4842                           
  4843                           ;incstack = 0
  4844                           ; Regs used in ___xxtofl: [wreg+status,2+status,0]
  4845                           ;___xxtofl@sign stored from wreg
  4846     0892  1283               	bcf	3,5	;RP0=0, select bank0
  4847     0893  1303               	bcf	3,6	;RP1=0, select bank0
  4848     0894  00AC               	movwf	___xxtofl@sign
  4849     0895                     l3518:
  4850     0895  082C               	movf	___xxtofl@sign,w
  4851     0896  1903               	btfsc	3,2
  4852     0897  2899               	goto	u4831
  4853     0898  289A               	goto	u4830
  4854     0899                     u4831:
  4855     0899  28AE               	goto	l3524
  4856     089A                     u4830:
  4857     089A                     l3520:
  4858     089A  1FA7               	btfss	___xxtofl@val+3,7
  4859     089B  289D               	goto	u4841
  4860     089C  289E               	goto	u4840
  4861     089D                     u4841:
  4862     089D  28AE               	goto	l3524
  4863     089E                     u4840:
  4864     089E                     l3522:
  4865     089E  0924               	comf	___xxtofl@val,w
  4866     089F  00AE               	movwf	___xxtofl@arg
  4867     08A0  0925               	comf	___xxtofl@val+1,w
  4868     08A1  00AF               	movwf	___xxtofl@arg+1
  4869     08A2  0926               	comf	___xxtofl@val+2,w
  4870     08A3  00B0               	movwf	___xxtofl@arg+2
  4871     08A4  0927               	comf	___xxtofl@val+3,w
  4872     08A5  00B1               	movwf	___xxtofl@arg+3
  4873     08A6  0AAE               	incf	___xxtofl@arg,f
  4874     08A7  1903               	skipnz
  4875     08A8  0AAF               	incf	___xxtofl@arg+1,f
  4876     08A9  1903               	skipnz
  4877     08AA  0AB0               	incf	___xxtofl@arg+2,f
  4878     08AB  1903               	skipnz
  4879     08AC  0AB1               	incf	___xxtofl@arg+3,f
  4880     08AD  28B6               	goto	l885
  4881     08AE                     l3524:
  4882     08AE  0827               	movf	___xxtofl@val+3,w
  4883     08AF  00B1               	movwf	___xxtofl@arg+3
  4884     08B0  0826               	movf	___xxtofl@val+2,w
  4885     08B1  00B0               	movwf	___xxtofl@arg+2
  4886     08B2  0825               	movf	___xxtofl@val+1,w
  4887     08B3  00AF               	movwf	___xxtofl@arg+1
  4888     08B4  0824               	movf	___xxtofl@val,w
  4889     08B5  00AE               	movwf	___xxtofl@arg
  4890     08B6                     l885:
  4891     08B6  0827               	movf	___xxtofl@val+3,w
  4892     08B7  0426               	iorwf	___xxtofl@val+2,w
  4893     08B8  0425               	iorwf	___xxtofl@val+1,w
  4894     08B9  0424               	iorwf	___xxtofl@val,w
  4895     08BA  1D03               	skipz
  4896     08BB  28BD               	goto	u4851
  4897     08BC  28BE               	goto	u4850
  4898     08BD                     u4851:
  4899     08BD  28C7               	goto	l886
  4900     08BE                     u4850:
  4901     08BE                     l3526:
  4902     08BE  3000               	movlw	0
  4903     08BF  00A7               	movwf	?___xxtofl+3
  4904     08C0  3000               	movlw	0
  4905     08C1  00A6               	movwf	?___xxtofl+2
  4906     08C2  3000               	movlw	0
  4907     08C3  00A5               	movwf	?___xxtofl+1
  4908     08C4  3000               	movlw	0
  4909     08C5  00A4               	movwf	?___xxtofl
  4910     08C6  2947               	goto	l887
  4911     08C7                     l886:
  4912     08C7  3096               	movlw	150
  4913     08C8  00AD               	movwf	___xxtofl@exp
  4914     08C9  28D5               	goto	l3532
  4915     08CA                     l3530:
  4916     08CA  3001               	movlw	1
  4917     08CB  07AD               	addwf	___xxtofl@exp,f
  4918     08CC  3001               	movlw	1
  4919     08CD                     u4865:
  4920     08CD  1003               	clrc
  4921     08CE  0CB1               	rrf	___xxtofl@arg+3,f
  4922     08CF  0CB0               	rrf	___xxtofl@arg+2,f
  4923     08D0  0CAF               	rrf	___xxtofl@arg+1,f
  4924     08D1  0CAE               	rrf	___xxtofl@arg,f
  4925     08D2  3EFF               	addlw	-1
  4926     08D3  1D03               	skipz
  4927     08D4  28CD               	goto	u4865
  4928     08D5                     l3532:
  4929     08D5  30FE               	movlw	254
  4930     08D6  0531               	andwf	___xxtofl@arg+3,w
  4931     08D7  1D03               	btfss	3,2
  4932     08D8  28DA               	goto	u4871
  4933     08D9  28DB               	goto	u4870
  4934     08DA                     u4871:
  4935     08DA  28CA               	goto	l3530
  4936     08DB                     u4870:
  4937     08DB  28F5               	goto	l891
  4938     08DC                     l3534:
  4939     08DC  3001               	movlw	1
  4940     08DD  07AD               	addwf	___xxtofl@exp,f
  4941     08DE                     l3536:
  4942     08DE  3001               	movlw	1
  4943     08DF  07AE               	addwf	___xxtofl@arg,f
  4944     08E0  3000               	movlw	0
  4945     08E1  1803               	skipnc
  4946     08E2  3001               	movlw	1
  4947     08E3  07AF               	addwf	___xxtofl@arg+1,f
  4948     08E4  3000               	movlw	0
  4949     08E5  1803               	skipnc
  4950     08E6  3001               	movlw	1
  4951     08E7  07B0               	addwf	___xxtofl@arg+2,f
  4952     08E8  3000               	movlw	0
  4953     08E9  1803               	skipnc
  4954     08EA  3001               	movlw	1
  4955     08EB  07B1               	addwf	___xxtofl@arg+3,f
  4956     08EC                     l3538:
  4957     08EC  3001               	movlw	1
  4958     08ED                     u4885:
  4959     08ED  1003               	clrc
  4960     08EE  0CB1               	rrf	___xxtofl@arg+3,f
  4961     08EF  0CB0               	rrf	___xxtofl@arg+2,f
  4962     08F0  0CAF               	rrf	___xxtofl@arg+1,f
  4963     08F1  0CAE               	rrf	___xxtofl@arg,f
  4964     08F2  3EFF               	addlw	-1
  4965     08F3  1D03               	skipz
  4966     08F4  28ED               	goto	u4885
  4967     08F5                     l891:
  4968     08F5  30FF               	movlw	255
  4969     08F6  0531               	andwf	___xxtofl@arg+3,w
  4970     08F7  1D03               	btfss	3,2
  4971     08F8  28FA               	goto	u4891
  4972     08F9  28FB               	goto	u4890
  4973     08FA                     u4891:
  4974     08FA  28DC               	goto	l3534
  4975     08FB                     u4890:
  4976     08FB  2907               	goto	l3542
  4977     08FC                     l3540:
  4978     08FC  3001               	movlw	1
  4979     08FD  02AD               	subwf	___xxtofl@exp,f
  4980     08FE  3001               	movlw	1
  4981     08FF  00A8               	movwf	??___xxtofl
  4982     0900                     u4905:
  4983     0900  1003               	clrc
  4984     0901  0DAE               	rlf	___xxtofl@arg,f
  4985     0902  0DAF               	rlf	___xxtofl@arg+1,f
  4986     0903  0DB0               	rlf	___xxtofl@arg+2,f
  4987     0904  0DB1               	rlf	___xxtofl@arg+3,f
  4988     0905  0BA8               	decfsz	??___xxtofl,f
  4989     0906  2900               	goto	u4905
  4990     0907                     l3542:
  4991     0907  1BB0               	btfsc	___xxtofl@arg+2,7
  4992     0908  290A               	goto	u4911
  4993     0909  290B               	goto	u4910
  4994     090A                     u4911:
  4995     090A  2911               	goto	l898
  4996     090B                     u4910:
  4997     090B                     l3544:
  4998     090B  3002               	movlw	2
  4999     090C  022D               	subwf	___xxtofl@exp,w
  5000     090D  1803               	skipnc
  5001     090E  2910               	goto	u4921
  5002     090F  2911               	goto	u4920
  5003     0910                     u4921:
  5004     0910  28FC               	goto	l3540
  5005     0911                     u4920:
  5006     0911                     l898:
  5007     0911  182D               	btfsc	___xxtofl@exp,0
  5008     0912  2914               	goto	u4931
  5009     0913  2915               	goto	u4930
  5010     0914                     u4931:
  5011     0914  291D               	goto	l899
  5012     0915                     u4930:
  5013     0915                     l3546:
  5014     0915  30FF               	movlw	255
  5015     0916  05AE               	andwf	___xxtofl@arg,f
  5016     0917  30FF               	movlw	255
  5017     0918  05AF               	andwf	___xxtofl@arg+1,f
  5018     0919  307F               	movlw	127
  5019     091A  05B0               	andwf	___xxtofl@arg+2,f
  5020     091B  30FF               	movlw	255
  5021     091C  05B1               	andwf	___xxtofl@arg+3,f
  5022     091D                     l899:
  5023     091D  1003               	clrc
  5024     091E  0CAD               	rrf	___xxtofl@exp,f
  5025     091F                     l3548:
  5026     091F  082D               	movf	___xxtofl@exp,w
  5027     0920  00A8               	movwf	??___xxtofl
  5028     0921  01A9               	clrf	??___xxtofl+1
  5029     0922  01AA               	clrf	??___xxtofl+2
  5030     0923  01AB               	clrf	??___xxtofl+3
  5031     0924  3018               	movlw	24
  5032     0925                     u4945:
  5033     0925  1003               	clrc
  5034     0926  0DA8               	rlf	??___xxtofl,f
  5035     0927  0DA9               	rlf	??___xxtofl+1,f
  5036     0928  0DAA               	rlf	??___xxtofl+2,f
  5037     0929  0DAB               	rlf	??___xxtofl+3,f
  5038     092A                     u4940:
  5039     092A  3EFF               	addlw	-1
  5040     092B  1D03               	skipz
  5041     092C  2925               	goto	u4945
  5042     092D  0828               	movf	??___xxtofl,w
  5043     092E  04AE               	iorwf	___xxtofl@arg,f
  5044     092F  0829               	movf	??___xxtofl+1,w
  5045     0930  04AF               	iorwf	___xxtofl@arg+1,f
  5046     0931  082A               	movf	??___xxtofl+2,w
  5047     0932  04B0               	iorwf	___xxtofl@arg+2,f
  5048     0933  082B               	movf	??___xxtofl+3,w
  5049     0934  04B1               	iorwf	___xxtofl@arg+3,f
  5050     0935                     l3550:
  5051     0935  082C               	movf	___xxtofl@sign,w
  5052     0936  1903               	btfsc	3,2
  5053     0937  2939               	goto	u4951
  5054     0938  293A               	goto	u4950
  5055     0939                     u4951:
  5056     0939  293F               	goto	l3556
  5057     093A                     u4950:
  5058     093A                     l3552:
  5059     093A  1FA7               	btfss	___xxtofl@val+3,7
  5060     093B  293D               	goto	u4961
  5061     093C  293E               	goto	u4960
  5062     093D                     u4961:
  5063     093D  293F               	goto	l3556
  5064     093E                     u4960:
  5065     093E                     l3554:
  5066     093E  17B1               	bsf	___xxtofl@arg+3,7
  5067     093F                     l3556:
  5068     093F  0831               	movf	___xxtofl@arg+3,w
  5069     0940  00A7               	movwf	?___xxtofl+3
  5070     0941  0830               	movf	___xxtofl@arg+2,w
  5071     0942  00A6               	movwf	?___xxtofl+2
  5072     0943  082F               	movf	___xxtofl@arg+1,w
  5073     0944  00A5               	movwf	?___xxtofl+1
  5074     0945  082E               	movf	___xxtofl@arg,w
  5075     0946  00A4               	movwf	?___xxtofl
  5076     0947                     l887:
  5077     0947  0008               	return
  5078     0948                     __end_of___xxtofl:
  5079                           
  5080                           	psect	text8
  5081     13E0                     __ptext8:	
  5082 ;; *************** function ___wmul *****************
  5083 ;; Defined at:
  5084 ;;		line 15 in file "C:\Program Files\Microchip\xc8\v3.00\pic\sources\c99\common\Umul16.c"
  5085 ;; Parameters:    Size  Location     Type
  5086 ;;  multiplier      2    2[COMMON] unsigned int 
  5087 ;;  multiplicand    2    4[COMMON] unsigned int 
  5088 ;; Auto vars:     Size  Location     Type
  5089 ;;  product         2    6[COMMON] unsigned int 
  5090 ;; Return value:  Size  Location     Type
  5091 ;;                  2    2[COMMON] unsigned int 
  5092 ;; Registers used:
  5093 ;;		wreg, status,2, status,0
  5094 ;; Tracked objects:
  5095 ;;		On entry : 0/0
  5096 ;;		On exit  : 0/0
  5097 ;;		Unchanged: 0/0
  5098 ;; Data sizes:     COMMON   BANK0   BANK1   BANK3   BANK2
  5099 ;;      Params:         4       0       0       0       0
  5100 ;;      Locals:         2       0       0       0       0
  5101 ;;      Temps:          0       0       0       0       0
  5102 ;;      Totals:         6       0       0       0       0
  5103 ;;Total ram usage:        6 bytes
  5104 ;; Hardware stack levels used: 1
  5105 ;; Hardware stack levels required when called: 1
  5106 ;; This function calls:
  5107 ;;		Nothing
  5108 ;; This function is called by:
  5109 ;;		_run_program
  5110 ;; This function uses a non-reentrant model
  5111 ;;
  5112                           
  5113     13E0                     ___wmul:	
  5114                           ;psect for function ___wmul
  5115                           
  5116     13E0                     l3218:	
  5117                           ;incstack = 0
  5118                           ; Regs used in ___wmul: [wreg+status,2+status,0]
  5119                           
  5120     13E0  01F6               	clrf	___wmul@product
  5121     13E1  01F7               	clrf	___wmul@product+1
  5122     13E2                     l3220:
  5123     13E2  1C72               	btfss	___wmul@multiplier,0
  5124     13E3  2BE5               	goto	u4061
  5125     13E4  2BE6               	goto	u4060
  5126     13E5                     u4061:
  5127     13E5  2BEC               	goto	l444
  5128     13E6                     u4060:
  5129     13E6                     l3222:
  5130     13E6  0874               	movf	___wmul@multiplicand,w
  5131     13E7  07F6               	addwf	___wmul@product,f
  5132     13E8  1803               	skipnc
  5133     13E9  0AF7               	incf	___wmul@product+1,f
  5134     13EA  0875               	movf	___wmul@multiplicand+1,w
  5135     13EB  07F7               	addwf	___wmul@product+1,f
  5136     13EC                     l444:
  5137     13EC  3001               	movlw	1
  5138     13ED                     u4075:
  5139     13ED  1003               	clrc
  5140     13EE  0DF4               	rlf	___wmul@multiplicand,f
  5141     13EF  0DF5               	rlf	___wmul@multiplicand+1,f
  5142     13F0  3EFF               	addlw	-1
  5143     13F1  1D03               	skipz
  5144     13F2  2BED               	goto	u4075
  5145     13F3                     l3224:
  5146     13F3  3001               	movlw	1
  5147     13F4                     u4085:
  5148     13F4  1003               	clrc
  5149     13F5  0CF3               	rrf	___wmul@multiplier+1,f
  5150     13F6  0CF2               	rrf	___wmul@multiplier,f
  5151     13F7  3EFF               	addlw	-1
  5152     13F8  1D03               	skipz
  5153     13F9  2BF4               	goto	u4085
  5154     13FA                     l3226:
  5155     13FA  0872               	movf	___wmul@multiplier,w
  5156     13FB  0473               	iorwf	___wmul@multiplier+1,w
  5157     13FC  1D03               	btfss	3,2
  5158     13FD  2BFF               	goto	u4091
  5159     13FE  2C00               	goto	u4090
  5160     13FF                     u4091:
  5161     13FF  2BE2               	goto	l3220
  5162     1400                     u4090:
  5163     1400                     l3228:
  5164     1400  0877               	movf	___wmul@product+1,w
  5165     1401  00F3               	movwf	?___wmul+1
  5166     1402  0876               	movf	___wmul@product,w
  5167     1403  00F2               	movwf	?___wmul
  5168     1404                     l446:
  5169     1404  0008               	return
  5170     1405                     __end_of___wmul:
  5171                           
  5172                           	psect	text9
  5173     081C                     __ptext9:	
  5174 ;; *************** function ___fltol *****************
  5175 ;; Defined at:
  5176 ;;		line 43 in file "C:\Program Files\Microchip\xc8\v3.00\pic\sources\c99\common\fltol.c"
  5177 ;; Parameters:    Size  Location     Type
  5178 ;;  f1              4    2[COMMON] unsigned int 
  5179 ;; Auto vars:     Size  Location     Type
  5180 ;;  exp1            1    7[COMMON] unsigned char 
  5181 ;;  sign1           1    6[COMMON] unsigned char 
  5182 ;; Return value:  Size  Location     Type
  5183 ;;                  4    2[COMMON] long 
  5184 ;; Registers used:
  5185 ;;		wreg, status,2, status,0
  5186 ;; Tracked objects:
  5187 ;;		On entry : 0/0
  5188 ;;		On exit  : 0/0
  5189 ;;		Unchanged: 0/0
  5190 ;; Data sizes:     COMMON   BANK0   BANK1   BANK3   BANK2
  5191 ;;      Params:         4       0       0       0       0
  5192 ;;      Locals:         2       0       0       0       0
  5193 ;;      Temps:          0       4       0       0       0
  5194 ;;      Totals:         6       4       0       0       0
  5195 ;;Total ram usage:       10 bytes
  5196 ;; Hardware stack levels used: 1
  5197 ;; Hardware stack levels required when called: 1
  5198 ;; This function calls:
  5199 ;;		Nothing
  5200 ;; This function is called by:
  5201 ;;		_run_program
  5202 ;; This function uses a non-reentrant model
  5203 ;;
  5204                           
  5205     081C                     ___fltol:	
  5206                           ;psect for function ___fltol
  5207                           
  5208     081C                     l3334:	
  5209                           ;incstack = 0
  5210                           ; Regs used in ___fltol: [wreg+status,2+status,0]
  5211                           
  5212     081C  1003               	clrc
  5213     081D  0D74               	rlf	___fltol@f1+2,w
  5214     081E  0D75               	rlf	___fltol@f1+3,w
  5215     081F  00F7               	movwf	___fltol@exp1
  5216     0820  0877               	movf	___fltol@exp1,w
  5217     0821  1D03               	btfss	3,2
  5218     0822  2824               	goto	u4361
  5219     0823  2825               	goto	u4360
  5220     0824                     u4361:
  5221     0824  282E               	goto	l3340
  5222     0825                     u4360:
  5223     0825                     l3336:
  5224     0825  3000               	movlw	0
  5225     0826  00F5               	movwf	?___fltol+3
  5226     0827  3000               	movlw	0
  5227     0828  00F4               	movwf	?___fltol+2
  5228     0829  3000               	movlw	0
  5229     082A  00F3               	movwf	?___fltol+1
  5230     082B  3000               	movlw	0
  5231     082C  00F2               	movwf	?___fltol
  5232     082D  2891               	goto	l638
  5233     082E                     l3340:
  5234     082E  0872               	movf	___fltol@f1,w
  5235     082F  1283               	bcf	3,5	;RP0=0, select bank0
  5236     0830  1303               	bcf	3,6	;RP1=0, select bank0
  5237     0831  00A0               	movwf	??___fltol
  5238     0832  0873               	movf	___fltol@f1+1,w
  5239     0833  00A1               	movwf	??___fltol+1
  5240     0834  0874               	movf	___fltol@f1+2,w
  5241     0835  00A2               	movwf	??___fltol+2
  5242     0836  0875               	movf	___fltol@f1+3,w
  5243     0837  00A3               	movwf	??___fltol+3
  5244     0838  301F               	movlw	31
  5245     0839                     u4375:
  5246     0839  1003               	clrc
  5247     083A  0CA3               	rrf	??___fltol+3,f
  5248     083B  0CA2               	rrf	??___fltol+2,f
  5249     083C  0CA1               	rrf	??___fltol+1,f
  5250     083D  0CA0               	rrf	??___fltol,f
  5251     083E                     u4370:
  5252     083E  3EFF               	addlw	-1
  5253     083F  1D03               	skipz
  5254     0840  2839               	goto	u4375
  5255     0841  0820               	movf	??___fltol,w
  5256     0842  00F6               	movwf	___fltol@sign1
  5257     0843                     l3342:
  5258     0843  17F4               	bsf	___fltol@f1+2,7
  5259     0844                     l3344:
  5260     0844  30FF               	movlw	255
  5261     0845  05F2               	andwf	___fltol@f1,f
  5262     0846  30FF               	movlw	255
  5263     0847  05F3               	andwf	___fltol@f1+1,f
  5264     0848  30FF               	movlw	255
  5265     0849  05F4               	andwf	___fltol@f1+2,f
  5266     084A  3000               	movlw	0
  5267     084B  05F5               	andwf	___fltol@f1+3,f
  5268     084C                     l3346:
  5269     084C  3096               	movlw	150
  5270     084D  02F7               	subwf	___fltol@exp1,f
  5271     084E                     l3348:
  5272     084E  1FF7               	btfss	___fltol@exp1,7
  5273     084F  2851               	goto	u4381
  5274     0850  2852               	goto	u4380
  5275     0851                     u4381:
  5276     0851  286A               	goto	l3358
  5277     0852                     u4380:
  5278     0852                     l3350:
  5279     0852  0877               	movf	___fltol@exp1,w
  5280     0853  3A80               	xorlw	128
  5281     0854  3E97               	addlw	151
  5282     0855  1803               	skipnc
  5283     0856  2858               	goto	u4391
  5284     0857  2859               	goto	u4390
  5285     0858                     u4391:
  5286     0858  285A               	goto	l3356
  5287     0859                     u4390:
  5288     0859  2825               	goto	l3336
  5289     085A                     l3356:
  5290     085A  3001               	movlw	1
  5291     085B                     u4405:
  5292     085B  1003               	clrc
  5293     085C  0CF5               	rrf	___fltol@f1+3,f
  5294     085D  0CF4               	rrf	___fltol@f1+2,f
  5295     085E  0CF3               	rrf	___fltol@f1+1,f
  5296     085F  0CF2               	rrf	___fltol@f1,f
  5297     0860  3EFF               	addlw	-1
  5298     0861  1D03               	skipz
  5299     0862  285B               	goto	u4405
  5300     0863  3001               	movlw	1
  5301     0864  07F7               	addwf	___fltol@exp1,f
  5302     0865  1D03               	btfss	3,2
  5303     0866  2868               	goto	u4411
  5304     0867  2869               	goto	u4410
  5305     0868                     u4411:
  5306     0868  285A               	goto	l3356
  5307     0869                     u4410:
  5308     0869  2881               	goto	l3366
  5309     086A                     l3358:
  5310     086A  3020               	movlw	32
  5311     086B  0277               	subwf	___fltol@exp1,w
  5312     086C  1C03               	skipc
  5313     086D  286F               	goto	u4421
  5314     086E  2870               	goto	u4420
  5315     086F                     u4421:
  5316     086F  287C               	goto	l645
  5317     0870                     u4420:
  5318     0870  2825               	goto	l3336
  5319     0871                     l3364:
  5320     0871  3001               	movlw	1
  5321     0872  00A0               	movwf	??___fltol
  5322     0873                     u4435:
  5323     0873  1003               	clrc
  5324     0874  0DF2               	rlf	___fltol@f1,f
  5325     0875  0DF3               	rlf	___fltol@f1+1,f
  5326     0876  0DF4               	rlf	___fltol@f1+2,f
  5327     0877  0DF5               	rlf	___fltol@f1+3,f
  5328     0878  0BA0               	decfsz	??___fltol,f
  5329     0879  2873               	goto	u4435
  5330     087A  3001               	movlw	1
  5331     087B  02F7               	subwf	___fltol@exp1,f
  5332     087C                     l645:
  5333     087C  0877               	movf	___fltol@exp1,w
  5334     087D  1D03               	btfss	3,2
  5335     087E  2880               	goto	u4441
  5336     087F  2881               	goto	u4440
  5337     0880                     u4441:
  5338     0880  2871               	goto	l3364
  5339     0881                     u4440:
  5340     0881                     l3366:
  5341     0881  0876               	movf	___fltol@sign1,w
  5342     0882  1903               	btfsc	3,2
  5343     0883  2885               	goto	u4451
  5344     0884  2886               	goto	u4450
  5345     0885                     u4451:
  5346     0885  2891               	goto	l648
  5347     0886                     u4450:
  5348     0886                     l3368:
  5349     0886  09F2               	comf	___fltol@f1,f
  5350     0887  09F3               	comf	___fltol@f1+1,f
  5351     0888  09F4               	comf	___fltol@f1+2,f
  5352     0889  09F5               	comf	___fltol@f1+3,f
  5353     088A  0AF2               	incf	___fltol@f1,f
  5354     088B  1903               	skipnz
  5355     088C  0AF3               	incf	___fltol@f1+1,f
  5356     088D  1903               	skipnz
  5357     088E  0AF4               	incf	___fltol@f1+2,f
  5358     088F  1903               	skipnz
  5359     0890  0AF5               	incf	___fltol@f1+3,f
  5360     0891                     l648:
  5361     0891                     l638:
  5362     0891  0008               	return
  5363     0892                     __end_of___fltol:
  5364                           
  5365                           	psect	text10
  5366     13BC                     __ptext10:	
  5367 ;; *************** function ___flsub *****************
  5368 ;; Defined at:
  5369 ;;		line 242 in file "C:\Program Files\Microchip\xc8\v3.00\pic\sources\c99\common\sprcadd.c"
  5370 ;; Parameters:    Size  Location     Type
  5371 ;;  a               4   44[BANK0 ] long 
  5372 ;;  b               4   48[BANK0 ] long 
  5373 ;; Auto vars:     Size  Location     Type
  5374 ;;		None
  5375 ;; Return value:  Size  Location     Type
  5376 ;;                  4   44[BANK0 ] long 
  5377 ;; Registers used:
  5378 ;;		wreg, status,2, status,0, btemp+1, pclath, cstack
  5379 ;; Tracked objects:
  5380 ;;		On entry : 0/0
  5381 ;;		On exit  : 0/0
  5382 ;;		Unchanged: 0/0
  5383 ;; Data sizes:     COMMON   BANK0   BANK1   BANK3   BANK2
  5384 ;;      Params:         0       8       0       0       0
  5385 ;;      Locals:         0       0       0       0       0
  5386 ;;      Temps:          0       0       0       0       0
  5387 ;;      Totals:         0       8       0       0       0
  5388 ;;Total ram usage:        8 bytes
  5389 ;; Hardware stack levels used: 1
  5390 ;; Hardware stack levels required when called: 2
  5391 ;; This function calls:
  5392 ;;		___fladd
  5393 ;; This function is called by:
  5394 ;;		_run_program
  5395 ;; This function uses a non-reentrant model
  5396 ;;
  5397                           
  5398     13BC                     ___flsub:	
  5399                           ;psect for function ___flsub
  5400                           
  5401     13BC                     l3370:	
  5402                           ;incstack = 0
  5403                           ; Regs used in ___flsub: [wreg+status,2+status,0+btemp+1+pclath+cstack]
  5404                           
  5405     13BC  3080               	movlw	128
  5406     13BD  1283               	bcf	3,5	;RP0=0, select bank0
  5407     13BE  1303               	bcf	3,6	;RP1=0, select bank0
  5408     13BF  06CF               	xorwf	___flsub@a+3,f
  5409     13C0                     l3372:
  5410     13C0  0853               	movf	___flsub@b+3,w
  5411     13C1  00A3               	movwf	___fladd@b+3
  5412     13C2  0852               	movf	___flsub@b+2,w
  5413     13C3  00A2               	movwf	___fladd@b+2
  5414     13C4  0851               	movf	___flsub@b+1,w
  5415     13C5  00A1               	movwf	___fladd@b+1
  5416     13C6  0850               	movf	___flsub@b,w
  5417     13C7  00A0               	movwf	___fladd@b
  5418     13C8  084F               	movf	___flsub@a+3,w
  5419     13C9  00A7               	movwf	___fladd@a+3
  5420     13CA  084E               	movf	___flsub@a+2,w
  5421     13CB  00A6               	movwf	___fladd@a+2
  5422     13CC  084D               	movf	___flsub@a+1,w
  5423     13CD  00A5               	movwf	___fladd@a+1
  5424     13CE  084C               	movf	___flsub@a,w
  5425     13CF  00A4               	movwf	___fladd@a
  5426     13D0  120A  118A  2566  160A  118A  	fcall	___fladd
  5427     13D5  1283               	bcf	3,5	;RP0=0, select bank0
  5428     13D6  1303               	bcf	3,6	;RP1=0, select bank0
  5429     13D7  0823               	movf	?___fladd+3,w
  5430     13D8  00CF               	movwf	?___flsub+3
  5431     13D9  0822               	movf	?___fladd+2,w
  5432     13DA  00CE               	movwf	?___flsub+2
  5433     13DB  0821               	movf	?___fladd+1,w
  5434     13DC  00CD               	movwf	?___flsub+1
  5435     13DD  0820               	movf	?___fladd,w
  5436     13DE  00CC               	movwf	?___flsub
  5437     13DF                     l791:
  5438     13DF  0008               	return
  5439     13E0                     __end_of___flsub:
  5440                           
  5441                           	psect	text11
  5442     0566                     __ptext11:	
  5443 ;; *************** function ___fladd *****************
  5444 ;; Defined at:
  5445 ;;		line 10 in file "C:\Program Files\Microchip\xc8\v3.00\pic\sources\c99\common\sprcadd.c"
  5446 ;; Parameters:    Size  Location     Type
  5447 ;;  b               4    0[BANK0 ] long 
  5448 ;;  a               4    4[BANK0 ] long 
  5449 ;; Auto vars:     Size  Location     Type
  5450 ;;  grs             1    5[COMMON] unsigned char 
  5451 ;;  bexp            1    4[COMMON] unsigned char 
  5452 ;;  aexp            1    3[COMMON] unsigned char 
  5453 ;;  signs           1    2[COMMON] unsigned char 
  5454 ;; Return value:  Size  Location     Type
  5455 ;;                  4    0[BANK0 ] unsigned char 
  5456 ;; Registers used:
  5457 ;;		wreg, status,2, status,0, btemp+1
  5458 ;; Tracked objects:
  5459 ;;		On entry : 0/0
  5460 ;;		On exit  : 0/0
  5461 ;;		Unchanged: 0/0
  5462 ;; Data sizes:     COMMON   BANK0   BANK1   BANK3   BANK2
  5463 ;;      Params:         0       8       0       0       0
  5464 ;;      Locals:         4       0       0       0       0
  5465 ;;      Temps:          0       8       0       0       0
  5466 ;;      Totals:         4      16       0       0       0
  5467 ;;Total ram usage:       20 bytes
  5468 ;; Hardware stack levels used: 1
  5469 ;; Hardware stack levels required when called: 1
  5470 ;; This function calls:
  5471 ;;		Nothing
  5472 ;; This function is called by:
  5473 ;;		___flsub
  5474 ;; This function uses a non-reentrant model
  5475 ;;
  5476                           
  5477     0566                     ___fladd:	
  5478                           ;psect for function ___fladd
  5479                           
  5480     0566                     l2972:	
  5481                           ;incstack = 0
  5482                           ; Regs used in ___fladd: [wreg+status,2+status,0+btemp+1]
  5483                           
  5484     0566  1283               	bcf	3,5	;RP0=0, select bank0
  5485     0567  1303               	bcf	3,6	;RP1=0, select bank0
  5486     0568  0823               	movf	___fladd@b+3,w
  5487     0569  00F2               	movwf	___fladd@signs
  5488     056A                     l2974:
  5489     056A  3080               	movlw	128
  5490     056B  05F2               	andwf	___fladd@signs,f
  5491     056C                     l2976:
  5492     056C  0823               	movf	___fladd@b+3,w
  5493     056D  00A8               	movwf	??___fladd
  5494     056E  0728               	addwf	??___fladd,w
  5495     056F  00F4               	movwf	___fladd@bexp
  5496     0570                     l2978:
  5497     0570  1FA2               	btfss	___fladd@b+2,7
  5498     0571  2D73               	goto	u3551
  5499     0572  2D74               	goto	u3550
  5500     0573                     u3551:
  5501     0573  2D75               	goto	l2982
  5502     0574                     u3550:
  5503     0574                     l2980:
  5504     0574  1474               	bsf	___fladd@bexp,0
  5505     0575                     l2982:
  5506     0575  0874               	movf	___fladd@bexp,w
  5507     0576  1903               	btfsc	3,2
  5508     0577  2D79               	goto	u3561
  5509     0578  2D7A               	goto	u3560
  5510     0579                     u3561:
  5511     0579  2D8A               	goto	l2992
  5512     057A                     u3560:
  5513     057A                     l2984:
  5514     057A  0A74               	incf	___fladd@bexp,w
  5515     057B  1D03               	btfss	3,2
  5516     057C  2D7E               	goto	u3571
  5517     057D  2D7F               	goto	u3570
  5518     057E                     u3571:
  5519     057E  2D87               	goto	l2988
  5520     057F                     u3570:
  5521     057F                     l2986:
  5522     057F  3000               	movlw	0
  5523     0580  00A3               	movwf	___fladd@b+3
  5524     0581  3000               	movlw	0
  5525     0582  00A2               	movwf	___fladd@b+2
  5526     0583  3000               	movlw	0
  5527     0584  00A1               	movwf	___fladd@b+1
  5528     0585  3000               	movlw	0
  5529     0586  00A0               	movwf	___fladd@b
  5530     0587                     l2988:
  5531     0587  17A2               	bsf	___fladd@b+2,7
  5532     0588                     l2990:
  5533     0588  01A3               	clrf	___fladd@b+3
  5534     0589  2D92               	goto	l740
  5535     058A                     l2992:
  5536     058A  3000               	movlw	0
  5537     058B  00A3               	movwf	___fladd@b+3
  5538     058C  3000               	movlw	0
  5539     058D  00A2               	movwf	___fladd@b+2
  5540     058E  3000               	movlw	0
  5541     058F  00A1               	movwf	___fladd@b+1
  5542     0590  3000               	movlw	0
  5543     0591  00A0               	movwf	___fladd@b
  5544     0592                     l740:
  5545     0592  0827               	movf	___fladd@a+3,w
  5546     0593  00F3               	movwf	___fladd@aexp
  5547     0594                     l2994:
  5548     0594  3080               	movlw	128
  5549     0595  05F3               	andwf	___fladd@aexp,f
  5550     0596                     l2996:
  5551     0596  0873               	movf	___fladd@aexp,w
  5552     0597  0672               	xorwf	___fladd@signs,w
  5553     0598  1903               	skipnz
  5554     0599  2D9B               	goto	u3581
  5555     059A  2D9C               	goto	u3580
  5556     059B                     u3581:
  5557     059B  2D9D               	goto	l3000
  5558     059C                     u3580:
  5559     059C                     l2998:
  5560     059C  1772               	bsf	___fladd@signs,6
  5561     059D                     l3000:
  5562     059D  0827               	movf	___fladd@a+3,w
  5563     059E  00A8               	movwf	??___fladd
  5564     059F  0728               	addwf	??___fladd,w
  5565     05A0  00F3               	movwf	___fladd@aexp
  5566     05A1                     l3002:
  5567     05A1  1FA6               	btfss	___fladd@a+2,7
  5568     05A2  2DA4               	goto	u3591
  5569     05A3  2DA5               	goto	u3590
  5570     05A4                     u3591:
  5571     05A4  2DA6               	goto	l3006
  5572     05A5                     u3590:
  5573     05A5                     l3004:
  5574     05A5  1473               	bsf	___fladd@aexp,0
  5575     05A6                     l3006:
  5576     05A6  0873               	movf	___fladd@aexp,w
  5577     05A7  1903               	btfsc	3,2
  5578     05A8  2DAA               	goto	u3601
  5579     05A9  2DAB               	goto	u3600
  5580     05AA                     u3601:
  5581     05AA  2DBB               	goto	l3016
  5582     05AB                     u3600:
  5583     05AB                     l3008:
  5584     05AB  0A73               	incf	___fladd@aexp,w
  5585     05AC  1D03               	btfss	3,2
  5586     05AD  2DAF               	goto	u3611
  5587     05AE  2DB0               	goto	u3610
  5588     05AF                     u3611:
  5589     05AF  2DB8               	goto	l3012
  5590     05B0                     u3610:
  5591     05B0                     l3010:
  5592     05B0  3000               	movlw	0
  5593     05B1  00A7               	movwf	___fladd@a+3
  5594     05B2  3000               	movlw	0
  5595     05B3  00A6               	movwf	___fladd@a+2
  5596     05B4  3000               	movlw	0
  5597     05B5  00A5               	movwf	___fladd@a+1
  5598     05B6  3000               	movlw	0
  5599     05B7  00A4               	movwf	___fladd@a
  5600     05B8                     l3012:
  5601     05B8  17A6               	bsf	___fladd@a+2,7
  5602     05B9                     l3014:
  5603     05B9  01A7               	clrf	___fladd@a+3
  5604     05BA  2DC3               	goto	l745
  5605     05BB                     l3016:
  5606     05BB  3000               	movlw	0
  5607     05BC  00A7               	movwf	___fladd@a+3
  5608     05BD  3000               	movlw	0
  5609     05BE  00A6               	movwf	___fladd@a+2
  5610     05BF  3000               	movlw	0
  5611     05C0  00A5               	movwf	___fladd@a+1
  5612     05C1  3000               	movlw	0
  5613     05C2  00A4               	movwf	___fladd@a
  5614     05C3                     l745:
  5615     05C3  0874               	movf	___fladd@bexp,w
  5616     05C4  0273               	subwf	___fladd@aexp,w
  5617     05C5  1803               	skipnc
  5618     05C6  2DC8               	goto	u3621
  5619     05C7  2DC9               	goto	u3620
  5620     05C8                     u3621:
  5621     05C8  2DED               	goto	l3052
  5622     05C9                     u3620:
  5623     05C9                     l3018:
  5624     05C9  1F72               	btfss	___fladd@signs,6
  5625     05CA  2DCC               	goto	u3631
  5626     05CB  2DCD               	goto	u3630
  5627     05CC                     u3631:
  5628     05CC  2DCF               	goto	l3022
  5629     05CD                     u3630:
  5630     05CD                     l3020:
  5631     05CD  3080               	movlw	128
  5632     05CE  06F2               	xorwf	___fladd@signs,f
  5633     05CF                     l3022:
  5634     05CF  0874               	movf	___fladd@bexp,w
  5635     05D0  00F5               	movwf	___fladd@grs
  5636     05D1                     l3024:
  5637     05D1  0873               	movf	___fladd@aexp,w
  5638     05D2  00F4               	movwf	___fladd@bexp
  5639     05D3                     l3026:
  5640     05D3  0875               	movf	___fladd@grs,w
  5641     05D4  00F3               	movwf	___fladd@aexp
  5642     05D5                     l3028:
  5643     05D5  0820               	movf	___fladd@b,w
  5644     05D6  00F5               	movwf	___fladd@grs
  5645     05D7                     l3030:
  5646     05D7  0824               	movf	___fladd@a,w
  5647     05D8  00A0               	movwf	___fladd@b
  5648     05D9                     l3032:
  5649     05D9  0875               	movf	___fladd@grs,w
  5650     05DA  00A4               	movwf	___fladd@a
  5651     05DB                     l3034:
  5652     05DB  0821               	movf	___fladd@b+1,w
  5653     05DC  00F5               	movwf	___fladd@grs
  5654     05DD                     l3036:
  5655     05DD  0825               	movf	___fladd@a+1,w
  5656     05DE  00A1               	movwf	___fladd@b+1
  5657     05DF                     l3038:
  5658     05DF  0875               	movf	___fladd@grs,w
  5659     05E0  00A5               	movwf	___fladd@a+1
  5660     05E1                     l3040:
  5661     05E1  0822               	movf	___fladd@b+2,w
  5662     05E2  00F5               	movwf	___fladd@grs
  5663     05E3                     l3042:
  5664     05E3  0826               	movf	___fladd@a+2,w
  5665     05E4  00A2               	movwf	___fladd@b+2
  5666     05E5                     l3044:
  5667     05E5  0875               	movf	___fladd@grs,w
  5668     05E6  00A6               	movwf	___fladd@a+2
  5669     05E7                     l3046:
  5670     05E7  0823               	movf	___fladd@b+3,w
  5671     05E8  00F5               	movwf	___fladd@grs
  5672     05E9                     l3048:
  5673     05E9  0827               	movf	___fladd@a+3,w
  5674     05EA  00A3               	movwf	___fladd@b+3
  5675     05EB                     l3050:
  5676     05EB  0875               	movf	___fladd@grs,w
  5677     05EC  00A7               	movwf	___fladd@a+3
  5678     05ED                     l3052:
  5679     05ED  01F5               	clrf	___fladd@grs
  5680     05EE                     l3054:
  5681     05EE  0873               	movf	___fladd@aexp,w
  5682     05EF  00A8               	movwf	??___fladd
  5683     05F0  01A9               	clrf	??___fladd+1
  5684     05F1  0829               	movf	??___fladd+1,w
  5685     05F2  00AB               	movwf	??___fladd+3
  5686     05F3  0874               	movf	___fladd@bexp,w
  5687     05F4  0228               	subwf	??___fladd,w
  5688     05F5  00AA               	movwf	??___fladd+2
  5689     05F6  1C03               	skipc
  5690     05F7  03AB               	decf	??___fladd+3,f
  5691     05F8  082B               	movf	??___fladd+3,w
  5692     05F9  3A80               	xorlw	128
  5693     05FA  00FF               	movwf	btemp+1
  5694     05FB  3080               	movlw	128
  5695     05FC  027F               	subwf	btemp+1,w
  5696     05FD  1D03               	skipz
  5697     05FE  2E01               	goto	u3645
  5698     05FF  301A               	movlw	26
  5699     0600  022A               	subwf	??___fladd+2,w
  5700     0601                     u3645:
  5701     0601  1C03               	skipc
  5702     0602  2E04               	goto	u3641
  5703     0603  2E05               	goto	u3640
  5704     0604                     u3641:
  5705     0604  2E3E               	goto	l3070
  5706     0605                     u3640:
  5707     0605                     l3056:
  5708     0605  1283               	bcf	3,5	;RP0=0, select bank0
  5709     0606  1303               	bcf	3,6	;RP1=0, select bank0
  5710     0607  0823               	movf	___fladd@b+3,w
  5711     0608  0422               	iorwf	___fladd@b+2,w
  5712     0609  0421               	iorwf	___fladd@b+1,w
  5713     060A  0420               	iorwf	___fladd@b,w
  5714     060B  1D03               	skipz
  5715     060C  2E0E               	goto	u3651
  5716     060D  2E10               	goto	u3650
  5717     060E                     u3651:
  5718     060E  3001               	movlw	1
  5719     060F  2E11               	goto	u3660
  5720     0610                     u3650:
  5721     0610  3000               	movlw	0
  5722     0611                     u3660:
  5723     0611  00F5               	movwf	___fladd@grs
  5724     0612  3000               	movlw	0
  5725     0613  00A3               	movwf	___fladd@b+3
  5726     0614  3000               	movlw	0
  5727     0615  00A2               	movwf	___fladd@b+2
  5728     0616  3000               	movlw	0
  5729     0617  00A1               	movwf	___fladd@b+1
  5730     0618  3000               	movlw	0
  5731     0619  00A0               	movwf	___fladd@b
  5732     061A  0873               	movf	___fladd@aexp,w
  5733     061B  00F4               	movwf	___fladd@bexp
  5734     061C  2E44               	goto	l749
  5735     061D                     l751:
  5736     061D  1C75               	btfss	___fladd@grs,0
  5737     061E  2E20               	goto	u3671
  5738     061F  2E21               	goto	u3670
  5739     0620                     u3671:
  5740     0620  2E2A               	goto	l3060
  5741     0621                     u3670:
  5742     0621                     l3058:
  5743     0621  0875               	movf	___fladd@grs,w
  5744     0622  1283               	bcf	3,5	;RP0=0, select bank0
  5745     0623  1303               	bcf	3,6	;RP1=0, select bank0
  5746     0624  00A8               	movwf	??___fladd
  5747     0625  1003               	clrc
  5748     0626  0C28               	rrf	??___fladd,w
  5749     0627  3801               	iorlw	1
  5750     0628  00F5               	movwf	___fladd@grs
  5751     0629  2E2C               	goto	l3062
  5752     062A                     l3060:
  5753     062A  1003               	clrc
  5754     062B  0CF5               	rrf	___fladd@grs,f
  5755     062C                     l3062:
  5756     062C  1283               	bcf	3,5	;RP0=0, select bank0
  5757     062D  1303               	bcf	3,6	;RP1=0, select bank0
  5758     062E  1C20               	btfss	___fladd@b,0
  5759     062F  2E31               	goto	u3681
  5760     0630  2E32               	goto	u3680
  5761     0631                     u3681:
  5762     0631  2E33               	goto	l3066
  5763     0632                     u3680:
  5764     0632                     l3064:
  5765     0632  17F5               	bsf	___fladd@grs,7
  5766     0633                     l3066:
  5767     0633  3001               	movlw	1
  5768     0634  00A8               	movwf	??___fladd
  5769     0635                     u3695:
  5770     0635  0D23               	rlf	___fladd@b+3,w
  5771     0636  0CA3               	rrf	___fladd@b+3,f
  5772     0637  0CA2               	rrf	___fladd@b+2,f
  5773     0638  0CA1               	rrf	___fladd@b+1,f
  5774     0639  0CA0               	rrf	___fladd@b,f
  5775     063A  0BA8               	decfsz	??___fladd& (0+127),f
  5776     063B  2E35               	goto	u3695
  5777     063C                     l3068:
  5778     063C  3001               	movlw	1
  5779     063D  07F4               	addwf	___fladd@bexp,f
  5780     063E                     l3070:
  5781     063E  0873               	movf	___fladd@aexp,w
  5782     063F  0274               	subwf	___fladd@bexp,w
  5783     0640  1C03               	skipc
  5784     0641  2E43               	goto	u3701
  5785     0642  2E44               	goto	u3700
  5786     0643                     u3701:
  5787     0643  2E1D               	goto	l751
  5788     0644                     u3700:
  5789     0644                     l749:
  5790     0644  1B72               	btfsc	___fladd@signs,6
  5791     0645  2E47               	goto	u3711
  5792     0646  2E48               	goto	u3710
  5793     0647                     u3711:
  5794     0647  2E93               	goto	l3096
  5795     0648                     u3710:
  5796     0648                     l3072:
  5797     0648  0874               	movf	___fladd@bexp,w
  5798     0649  1D03               	btfss	3,2
  5799     064A  2E4C               	goto	u3721
  5800     064B  2E4D               	goto	u3720
  5801     064C                     u3721:
  5802     064C  2E58               	goto	l3078
  5803     064D                     u3720:
  5804     064D                     l3074:
  5805     064D  3000               	movlw	0
  5806     064E  1283               	bcf	3,5	;RP0=0, select bank0
  5807     064F  1303               	bcf	3,6	;RP1=0, select bank0
  5808     0650  00A3               	movwf	?___fladd+3
  5809     0651  3000               	movlw	0
  5810     0652  00A2               	movwf	?___fladd+2
  5811     0653  3000               	movlw	0
  5812     0654  00A1               	movwf	?___fladd+1
  5813     0655  3000               	movlw	0
  5814     0656  00A0               	movwf	?___fladd
  5815     0657  2FBD               	goto	l758
  5816     0658                     l3078:
  5817     0658  1283               	bcf	3,5	;RP0=0, select bank0
  5818     0659  1303               	bcf	3,6	;RP1=0, select bank0
  5819     065A  0824               	movf	___fladd@a,w
  5820     065B  07A0               	addwf	___fladd@b,f
  5821     065C  0825               	movf	___fladd@a+1,w
  5822     065D  1103               	clrz
  5823     065E  1803               	skipnc
  5824     065F  3E01               	addlw	1
  5825     0660  1903               	skipnz
  5826     0661  2E63               	goto	u3731
  5827     0662  07A1               	addwf	___fladd@b+1,f
  5828     0663                     u3731:
  5829     0663  0826               	movf	___fladd@a+2,w
  5830     0664  1103               	clrz
  5831     0665  1803               	skipnc
  5832     0666  3E01               	addlw	1
  5833     0667  1903               	skipnz
  5834     0668  2E6A               	goto	u3732
  5835     0669  07A2               	addwf	___fladd@b+2,f
  5836     066A                     u3732:
  5837     066A  0827               	movf	___fladd@a+3,w
  5838     066B  1103               	clrz
  5839     066C  1803               	skipnc
  5840     066D  3E01               	addlw	1
  5841     066E  1903               	skipnz
  5842     066F  2E71               	goto	u3733
  5843     0670  07A3               	addwf	___fladd@b+3,f
  5844     0671                     u3733:
  5845     0671                     l3080:
  5846     0671  1C23               	btfss	___fladd@b+3,0
  5847     0672  2E74               	goto	u3741
  5848     0673  2E75               	goto	u3740
  5849     0674                     u3741:
  5850     0674  2F49               	goto	l3132
  5851     0675                     u3740:
  5852     0675                     l3082:
  5853     0675  1C75               	btfss	___fladd@grs,0
  5854     0676  2E78               	goto	u3751
  5855     0677  2E79               	goto	u3750
  5856     0678                     u3751:
  5857     0678  2E80               	goto	l3086
  5858     0679                     u3750:
  5859     0679                     l3084:
  5860     0679  0875               	movf	___fladd@grs,w
  5861     067A  00A8               	movwf	??___fladd
  5862     067B  1003               	clrc
  5863     067C  0C28               	rrf	??___fladd,w
  5864     067D  3801               	iorlw	1
  5865     067E  00F5               	movwf	___fladd@grs
  5866     067F  2E82               	goto	l3088
  5867     0680                     l3086:
  5868     0680  1003               	clrc
  5869     0681  0CF5               	rrf	___fladd@grs,f
  5870     0682                     l3088:
  5871     0682  1C20               	btfss	___fladd@b,0
  5872     0683  2E85               	goto	u3761
  5873     0684  2E86               	goto	u3760
  5874     0685                     u3761:
  5875     0685  2E87               	goto	l3092
  5876     0686                     u3760:
  5877     0686                     l3090:
  5878     0686  17F5               	bsf	___fladd@grs,7
  5879     0687                     l3092:
  5880     0687  3001               	movlw	1
  5881     0688  00A8               	movwf	??___fladd
  5882     0689                     u3775:
  5883     0689  0D23               	rlf	___fladd@b+3,w
  5884     068A  0CA3               	rrf	___fladd@b+3,f
  5885     068B  0CA2               	rrf	___fladd@b+2,f
  5886     068C  0CA1               	rrf	___fladd@b+1,f
  5887     068D  0CA0               	rrf	___fladd@b,f
  5888     068E  0BA8               	decfsz	??___fladd& (0+127),f
  5889     068F  2E89               	goto	u3775
  5890     0690                     l3094:
  5891     0690  3001               	movlw	1
  5892     0691  07F4               	addwf	___fladd@bexp,f
  5893     0692  2F49               	goto	l3132
  5894     0693                     l3096:
  5895     0693  1283               	bcf	3,5	;RP0=0, select bank0
  5896     0694  1303               	bcf	3,6	;RP1=0, select bank0
  5897     0695  0823               	movf	___fladd@b+3,w
  5898     0696  3A80               	xorlw	128
  5899     0697  00FF               	movwf	btemp+1
  5900     0698  0827               	movf	___fladd@a+3,w
  5901     0699  3A80               	xorlw	128
  5902     069A  027F               	subwf	btemp+1,w
  5903     069B  1D03               	skipz
  5904     069C  2EA7               	goto	u3783
  5905     069D  0826               	movf	___fladd@a+2,w
  5906     069E  0222               	subwf	___fladd@b+2,w
  5907     069F  1D03               	skipz
  5908     06A0  2EA7               	goto	u3783
  5909     06A1  0825               	movf	___fladd@a+1,w
  5910     06A2  0221               	subwf	___fladd@b+1,w
  5911     06A3  1D03               	skipz
  5912     06A4  2EA7               	goto	u3783
  5913     06A5  0824               	movf	___fladd@a,w
  5914     06A6  0220               	subwf	___fladd@b,w
  5915     06A7                     u3783:
  5916     06A7  1803               	skipnc
  5917     06A8  2EAA               	goto	u3781
  5918     06A9  2EAB               	goto	u3780
  5919     06AA                     u3781:
  5920     06AA  2F02               	goto	l3108
  5921     06AB                     u3780:
  5922     06AB                     l3098:
  5923     06AB  30FF               	movlw	255
  5924     06AC  00A8               	movwf	??___fladd
  5925     06AD  30FF               	movlw	255
  5926     06AE  00A9               	movwf	??___fladd+1
  5927     06AF  30FF               	movlw	255
  5928     06B0  00AA               	movwf	??___fladd+2
  5929     06B1  30FF               	movlw	255
  5930     06B2  00AB               	movwf	??___fladd+3
  5931     06B3  0824               	movf	___fladd@a,w
  5932     06B4  00AC               	movwf	??___fladd+4
  5933     06B5  0825               	movf	___fladd@a+1,w
  5934     06B6  00AD               	movwf	??___fladd+5
  5935     06B7  0826               	movf	___fladd@a+2,w
  5936     06B8  00AE               	movwf	??___fladd+6
  5937     06B9  0827               	movf	___fladd@a+3,w
  5938     06BA  00AF               	movwf	??___fladd+7
  5939     06BB  0820               	movf	___fladd@b,w
  5940     06BC  02AC               	subwf	??___fladd+4,f
  5941     06BD  0821               	movf	___fladd@b+1,w
  5942     06BE  1C03               	skipc
  5943     06BF  0F21               	incfsz	___fladd@b+1,w
  5944     06C0  2EC2               	goto	u3791
  5945     06C1  2EC3               	goto	u3792
  5946     06C2                     u3791:
  5947     06C2  02AD               	subwf	??___fladd+5,f
  5948     06C3                     u3792:
  5949     06C3  0822               	movf	___fladd@b+2,w
  5950     06C4  1C03               	skipc
  5951     06C5  0F22               	incfsz	___fladd@b+2,w
  5952     06C6  2EC8               	goto	u3793
  5953     06C7  2EC9               	goto	u3794
  5954     06C8                     u3793:
  5955     06C8  02AE               	subwf	??___fladd+6,f
  5956     06C9                     u3794:
  5957     06C9  0823               	movf	___fladd@b+3,w
  5958     06CA  1C03               	skipc
  5959     06CB  0F23               	incfsz	___fladd@b+3,w
  5960     06CC  2ECE               	goto	u3795
  5961     06CD  2ECF               	goto	u3796
  5962     06CE                     u3795:
  5963     06CE  02AF               	subwf	??___fladd+7,f
  5964     06CF                     u3796:
  5965     06CF  082C               	movf	??___fladd+4,w
  5966     06D0  07A8               	addwf	??___fladd,f
  5967     06D1  082D               	movf	??___fladd+5,w
  5968     06D2  1803               	skipnc
  5969     06D3  0F2D               	incfsz	??___fladd+5,w
  5970     06D4  2ED6               	goto	u3800
  5971     06D5  2ED7               	goto	u3801
  5972     06D6                     u3800:
  5973     06D6  07A9               	addwf	??___fladd+1,f
  5974     06D7                     u3801:
  5975     06D7  082E               	movf	??___fladd+6,w
  5976     06D8  1803               	skipnc
  5977     06D9  0F2E               	incfsz	??___fladd+6,w
  5978     06DA  2EDC               	goto	u3802
  5979     06DB  2EDD               	goto	u3803
  5980     06DC                     u3802:
  5981     06DC  07AA               	addwf	??___fladd+2,f
  5982     06DD                     u3803:
  5983     06DD  082F               	movf	??___fladd+7,w
  5984     06DE  1803               	skipnc
  5985     06DF  0A2F               	incf	??___fladd+7,w
  5986     06E0  07AB               	addwf	??___fladd+3,f
  5987     06E1  082B               	movf	??___fladd+3,w
  5988     06E2  00A3               	movwf	___fladd@b+3
  5989     06E3  082A               	movf	??___fladd+2,w
  5990     06E4  00A2               	movwf	___fladd@b+2
  5991     06E5  0829               	movf	??___fladd+1,w
  5992     06E6  00A1               	movwf	___fladd@b+1
  5993     06E7  0828               	movf	??___fladd,w
  5994     06E8  00A0               	movwf	___fladd@b
  5995     06E9                     l3100:
  5996     06E9  3080               	movlw	128
  5997     06EA  06F2               	xorwf	___fladd@signs,f
  5998     06EB                     l3102:
  5999     06EB  0375               	decf	___fladd@grs,w
  6000     06EC  3AFF               	xorlw	255
  6001     06ED  00F5               	movwf	___fladd@grs
  6002     06EE                     l3104:
  6003     06EE  0875               	movf	___fladd@grs,w
  6004     06EF  1D03               	btfss	3,2
  6005     06F0  2EF2               	goto	u3811
  6006     06F1  2EF3               	goto	u3810
  6007     06F2                     u3811:
  6008     06F2  2F10               	goto	l766
  6009     06F3                     u3810:
  6010     06F3                     l3106:
  6011     06F3  3001               	movlw	1
  6012     06F4  07A0               	addwf	___fladd@b,f
  6013     06F5  3000               	movlw	0
  6014     06F6  1803               	skipnc
  6015     06F7  3001               	movlw	1
  6016     06F8  07A1               	addwf	___fladd@b+1,f
  6017     06F9  3000               	movlw	0
  6018     06FA  1803               	skipnc
  6019     06FB  3001               	movlw	1
  6020     06FC  07A2               	addwf	___fladd@b+2,f
  6021     06FD  3000               	movlw	0
  6022     06FE  1803               	skipnc
  6023     06FF  3001               	movlw	1
  6024     0700  07A3               	addwf	___fladd@b+3,f
  6025     0701  2F10               	goto	l766
  6026     0702                     l3108:
  6027     0702  0824               	movf	___fladd@a,w
  6028     0703  02A0               	subwf	___fladd@b,f
  6029     0704  0825               	movf	___fladd@a+1,w
  6030     0705  1C03               	skipc
  6031     0706  0F25               	incfsz	___fladd@a+1,w
  6032     0707  02A1               	subwf	___fladd@b+1,f
  6033     0708  0826               	movf	___fladd@a+2,w
  6034     0709  1C03               	skipc
  6035     070A  0F26               	incfsz	___fladd@a+2,w
  6036     070B  02A2               	subwf	___fladd@b+2,f
  6037     070C  0827               	movf	___fladd@a+3,w
  6038     070D  1C03               	skipc
  6039     070E  0F27               	incfsz	___fladd@a+3,w
  6040     070F  02A3               	subwf	___fladd@b+3,f
  6041     0710                     l766:
  6042     0710  0823               	movf	___fladd@b+3,w
  6043     0711  0422               	iorwf	___fladd@b+2,w
  6044     0712  0421               	iorwf	___fladd@b+1,w
  6045     0713  0420               	iorwf	___fladd@b,w
  6046     0714  1D03               	skipz
  6047     0715  2F17               	goto	u3821
  6048     0716  2F18               	goto	u3820
  6049     0717                     u3821:
  6050     0717  2F45               	goto	l3130
  6051     0718                     u3820:
  6052     0718                     l3110:
  6053     0718  0875               	movf	___fladd@grs,w
  6054     0719  1D03               	btfss	3,2
  6055     071A  2F1C               	goto	u3831
  6056     071B  2F1D               	goto	u3830
  6057     071C                     u3831:
  6058     071C  2F45               	goto	l3130
  6059     071D                     u3830:
  6060     071D                     l3112:
  6061     071D  3000               	movlw	0
  6062     071E  00A3               	movwf	?___fladd+3
  6063     071F  3000               	movlw	0
  6064     0720  00A2               	movwf	?___fladd+2
  6065     0721  3000               	movlw	0
  6066     0722  00A1               	movwf	?___fladd+1
  6067     0723  3000               	movlw	0
  6068     0724  00A0               	movwf	?___fladd
  6069     0725  2FBD               	goto	l758
  6070     0726                     l3116:
  6071     0726  3001               	movlw	1
  6072     0727  00A8               	movwf	??___fladd
  6073     0728                     u3845:
  6074     0728  1003               	clrc
  6075     0729  0DA0               	rlf	___fladd@b,f
  6076     072A  0DA1               	rlf	___fladd@b+1,f
  6077     072B  0DA2               	rlf	___fladd@b+2,f
  6078     072C  0DA3               	rlf	___fladd@b+3,f
  6079     072D  0BA8               	decfsz	??___fladd,f
  6080     072E  2F28               	goto	u3845
  6081     072F                     l3118:
  6082     072F  1FF5               	btfss	___fladd@grs,7
  6083     0730  2F32               	goto	u3851
  6084     0731  2F33               	goto	u3850
  6085     0732                     u3851:
  6086     0732  2F34               	goto	l770
  6087     0733                     u3850:
  6088     0733                     l3120:
  6089     0733  1420               	bsf	___fladd@b,0
  6090     0734                     l770:
  6091     0734  1C75               	btfss	___fladd@grs,0
  6092     0735  2F37               	goto	u3861
  6093     0736  2F38               	goto	u3860
  6094     0737                     u3861:
  6095     0737  2F3C               	goto	l3124
  6096     0738                     u3860:
  6097     0738                     l3122:
  6098     0738  1403               	setc
  6099     0739  0D75               	rlf	___fladd@grs,w
  6100     073A  00F5               	movwf	___fladd@grs
  6101     073B  2F3E               	goto	l3126
  6102     073C                     l3124:
  6103     073C  1003               	clrc
  6104     073D  0DF5               	rlf	___fladd@grs,f
  6105     073E                     l3126:
  6106     073E  0874               	movf	___fladd@bexp,w
  6107     073F  1903               	btfsc	3,2
  6108     0740  2F42               	goto	u3871
  6109     0741  2F43               	goto	u3870
  6110     0742                     u3871:
  6111     0742  2F45               	goto	l3130
  6112     0743                     u3870:
  6113     0743                     l3128:
  6114     0743  3001               	movlw	1
  6115     0744  02F4               	subwf	___fladd@bexp,f
  6116     0745                     l3130:
  6117     0745  1FA2               	btfss	___fladd@b+2,7
  6118     0746  2F48               	goto	u3881
  6119     0747  2F49               	goto	u3880
  6120     0748                     u3881:
  6121     0748  2F26               	goto	l3116
  6122     0749                     u3880:
  6123     0749                     l3132:
  6124     0749  01F3               	clrf	___fladd@aexp
  6125     074A                     l3134:
  6126     074A  1FF5               	btfss	___fladd@grs,7
  6127     074B  2F4D               	goto	u3891
  6128     074C  2F4E               	goto	u3890
  6129     074D                     u3891:
  6130     074D  2F5C               	goto	l3142
  6131     074E                     u3890:
  6132     074E                     l3136:
  6133     074E  0875               	movf	___fladd@grs,w
  6134     074F  397F               	andlw	127
  6135     0750  1903               	btfsc	3,2
  6136     0751  2F53               	goto	u3901
  6137     0752  2F54               	goto	u3900
  6138     0753                     u3901:
  6139     0753  2F57               	goto	l776
  6140     0754                     u3900:
  6141     0754                     l3138:
  6142     0754  3001               	movlw	1
  6143     0755  00F3               	movwf	___fladd@aexp
  6144     0756  2F5C               	goto	l3142
  6145     0757                     l776:
  6146     0757  1C20               	btfss	___fladd@b,0
  6147     0758  2F5A               	goto	u3911
  6148     0759  2F5B               	goto	u3910
  6149     075A                     u3911:
  6150     075A  2F5C               	goto	l3142
  6151     075B                     u3910:
  6152     075B  2F54               	goto	l3138
  6153     075C                     l3142:
  6154     075C  0873               	movf	___fladd@aexp,w
  6155     075D  1903               	btfsc	3,2
  6156     075E  2F60               	goto	u3921
  6157     075F  2F61               	goto	u3920
  6158     0760                     u3921:
  6159     0760  2F93               	goto	l779
  6160     0761                     u3920:
  6161     0761                     l3144:
  6162     0761  3001               	movlw	1
  6163     0762  07A0               	addwf	___fladd@b,f
  6164     0763  3000               	movlw	0
  6165     0764  1803               	skipnc
  6166     0765  3001               	movlw	1
  6167     0766  07A1               	addwf	___fladd@b+1,f
  6168     0767  3000               	movlw	0
  6169     0768  1803               	skipnc
  6170     0769  3001               	movlw	1
  6171     076A  07A2               	addwf	___fladd@b+2,f
  6172     076B  3000               	movlw	0
  6173     076C  1803               	skipnc
  6174     076D  3001               	movlw	1
  6175     076E  07A3               	addwf	___fladd@b+3,f
  6176     076F                     l3146:
  6177     076F  1C23               	btfss	___fladd@b+3,0
  6178     0770  2F72               	goto	u3931
  6179     0771  2F73               	goto	u3930
  6180     0772                     u3931:
  6181     0772  2F93               	goto	l779
  6182     0773                     u3930:
  6183     0773                     l3148:
  6184     0773  0820               	movf	___fladd@b,w
  6185     0774  00A8               	movwf	??___fladd
  6186     0775  0821               	movf	___fladd@b+1,w
  6187     0776  00A9               	movwf	??___fladd+1
  6188     0777  0822               	movf	___fladd@b+2,w
  6189     0778  00AA               	movwf	??___fladd+2
  6190     0779  0823               	movf	___fladd@b+3,w
  6191     077A  00AB               	movwf	??___fladd+3
  6192     077B  3001               	movlw	1
  6193     077C  00AC               	movwf	??___fladd+4
  6194     077D                     u3945:
  6195     077D  0D2B               	rlf	??___fladd+3,w
  6196     077E  0CAB               	rrf	??___fladd+3,f
  6197     077F  0CAA               	rrf	??___fladd+2,f
  6198     0780  0CA9               	rrf	??___fladd+1,f
  6199     0781  0CA8               	rrf	??___fladd,f
  6200     0782                     u3940:
  6201     0782  0BAC               	decfsz	??___fladd+4,f
  6202     0783  2F7D               	goto	u3945
  6203     0784  082B               	movf	??___fladd+3,w
  6204     0785  00A3               	movwf	___fladd@b+3
  6205     0786  082A               	movf	??___fladd+2,w
  6206     0787  00A2               	movwf	___fladd@b+2
  6207     0788  0829               	movf	??___fladd+1,w
  6208     0789  00A1               	movwf	___fladd@b+1
  6209     078A  0828               	movf	??___fladd,w
  6210     078B  00A0               	movwf	___fladd@b
  6211     078C  0A74               	incf	___fladd@bexp,w
  6212     078D  1903               	btfsc	3,2
  6213     078E  2F90               	goto	u3951
  6214     078F  2F91               	goto	u3950
  6215     0790                     u3951:
  6216     0790  2F93               	goto	l779
  6217     0791                     u3950:
  6218     0791                     l3150:
  6219     0791  3001               	movlw	1
  6220     0792  07F4               	addwf	___fladd@bexp,f
  6221     0793                     l779:
  6222     0793  0A74               	incf	___fladd@bexp,w
  6223     0794  1903               	btfsc	3,2
  6224     0795  2F97               	goto	u3961
  6225     0796  2F98               	goto	u3960
  6226     0797                     u3961:
  6227     0797  2F9D               	goto	l3154
  6228     0798                     u3960:
  6229     0798                     l3152:
  6230     0798  0874               	movf	___fladd@bexp,w
  6231     0799  1D03               	btfss	3,2
  6232     079A  2F9C               	goto	u3971
  6233     079B  2F9D               	goto	u3970
  6234     079C                     u3971:
  6235     079C  2FAB               	goto	l3160
  6236     079D                     u3970:
  6237     079D                     l3154:
  6238     079D  3000               	movlw	0
  6239     079E  00A3               	movwf	___fladd@b+3
  6240     079F  3000               	movlw	0
  6241     07A0  00A2               	movwf	___fladd@b+2
  6242     07A1  3000               	movlw	0
  6243     07A2  00A1               	movwf	___fladd@b+1
  6244     07A3  3000               	movlw	0
  6245     07A4  00A0               	movwf	___fladd@b
  6246     07A5                     l3156:
  6247     07A5  0874               	movf	___fladd@bexp,w
  6248     07A6  1D03               	btfss	3,2
  6249     07A7  2FA9               	goto	u3981
  6250     07A8  2FAA               	goto	u3980
  6251     07A9                     u3981:
  6252     07A9  2FAB               	goto	l3160
  6253     07AA                     u3980:
  6254     07AA                     l3158:
  6255     07AA  01F2               	clrf	___fladd@signs
  6256     07AB                     l3160:
  6257     07AB  1C74               	btfss	___fladd@bexp,0
  6258     07AC  2FAE               	goto	u3991
  6259     07AD  2FAF               	goto	u3990
  6260     07AE                     u3991:
  6261     07AE  2FB1               	goto	l3164
  6262     07AF                     u3990:
  6263     07AF                     l3162:
  6264     07AF  17A2               	bsf	___fladd@b+2,7
  6265     07B0  2FB3               	goto	l787
  6266     07B1                     l3164:
  6267     07B1  307F               	movlw	127
  6268     07B2  05A2               	andwf	___fladd@b+2,f
  6269     07B3                     l787:
  6270     07B3  0874               	movf	___fladd@bexp,w
  6271     07B4  00A8               	movwf	??___fladd
  6272     07B5  1003               	clrc
  6273     07B6  0C28               	rrf	??___fladd,w
  6274     07B7  00A3               	movwf	___fladd@b+3
  6275     07B8                     l3166:
  6276     07B8  1FF2               	btfss	___fladd@signs,7
  6277     07B9  2FBB               	goto	u4001
  6278     07BA  2FBC               	goto	u4000
  6279     07BB                     u4001:
  6280     07BB  2FBD               	goto	l788
  6281     07BC                     u4000:
  6282     07BC                     l3168:
  6283     07BC  17A3               	bsf	___fladd@b+3,7
  6284     07BD                     l788:
  6285     07BD                     l758:
  6286     07BD  0008               	return
  6287     07BE                     __end_of___fladd:
  6288                           
  6289                           	psect	text12
  6290     0CBE                     __ptext12:	
  6291 ;; *************** function ___flmul *****************
  6292 ;; Defined at:
  6293 ;;		line 8 in file "C:\Program Files\Microchip\xc8\v3.00\pic\sources\c99\common\sprcmul.c"
  6294 ;; Parameters:    Size  Location     Type
  6295 ;;  b               4   18[BANK0 ] unsigned char 
  6296 ;;  a               4   22[BANK0 ] unsigned char 
  6297 ;; Auto vars:     Size  Location     Type
  6298 ;;  prod            4   38[BANK0 ] struct .
  6299 ;;  grs             4   33[BANK0 ] unsigned long 
  6300 ;;  temp            2   42[BANK0 ] struct .
  6301 ;;  bexp            1   37[BANK0 ] unsigned char 
  6302 ;;  aexp            1   32[BANK0 ] unsigned char 
  6303 ;;  sign            1   31[BANK0 ] unsigned char 
  6304 ;; Return value:  Size  Location     Type
  6305 ;;                  4   18[BANK0 ] unsigned char 
  6306 ;; Registers used:
  6307 ;;		wreg, status,2, status,0, btemp+1, pclath, cstack
  6308 ;; Tracked objects:
  6309 ;;		On entry : 0/0
  6310 ;;		On exit  : 0/0
  6311 ;;		Unchanged: 0/0
  6312 ;; Data sizes:     COMMON   BANK0   BANK1   BANK3   BANK2
  6313 ;;      Params:         0       8       0       0       0
  6314 ;;      Locals:         0      13       0       0       0
  6315 ;;      Temps:          0       5       0       0       0
  6316 ;;      Totals:         0      26       0       0       0
  6317 ;;Total ram usage:       26 bytes
  6318 ;; Hardware stack levels used: 1
  6319 ;; Hardware stack levels required when called: 2
  6320 ;; This function calls:
  6321 ;;		__Umul8_16
  6322 ;; This function is called by:
  6323 ;;		_run_program
  6324 ;; This function uses a non-reentrant model
  6325 ;;
  6326                           
  6327     0CBE                     ___flmul:	
  6328                           ;psect for function ___flmul
  6329                           
  6330     0CBE                     l3376:	
  6331                           ;incstack = 0
  6332                           ; Regs used in ___flmul: [wreg+status,2+status,0+btemp+1+pclath+cstack]
  6333                           
  6334     0CBE  1283               	bcf	3,5	;RP0=0, select bank0
  6335     0CBF  1303               	bcf	3,6	;RP1=0, select bank0
  6336     0CC0  0835               	movf	___flmul@b+3,w
  6337     0CC1  00BF               	movwf	___flmul@sign
  6338     0CC2                     l3378:
  6339     0CC2  3080               	movlw	128
  6340     0CC3  05BF               	andwf	___flmul@sign,f
  6341     0CC4                     l3380:
  6342     0CC4  0835               	movf	___flmul@b+3,w
  6343     0CC5  00BA               	movwf	??___flmul
  6344     0CC6  073A               	addwf	??___flmul,w
  6345     0CC7  00C5               	movwf	___flmul@bexp
  6346     0CC8                     l3382:
  6347     0CC8  1FB4               	btfss	___flmul@b+2,7
  6348     0CC9  2CCB               	goto	u4461
  6349     0CCA  2CCC               	goto	u4460
  6350     0CCB                     u4461:
  6351     0CCB  2CCD               	goto	l3386
  6352     0CCC                     u4460:
  6353     0CCC                     l3384:
  6354     0CCC  1445               	bsf	___flmul@bexp,0
  6355     0CCD                     l3386:
  6356     0CCD  0845               	movf	___flmul@bexp,w
  6357     0CCE  1903               	btfsc	3,2
  6358     0CCF  2CD1               	goto	u4471
  6359     0CD0  2CD2               	goto	u4470
  6360     0CD1                     u4471:
  6361     0CD1  2CE1               	goto	l3394
  6362     0CD2                     u4470:
  6363     0CD2                     l3388:
  6364     0CD2  0A45               	incf	___flmul@bexp,w
  6365     0CD3  1D03               	btfss	3,2
  6366     0CD4  2CD6               	goto	u4481
  6367     0CD5  2CD7               	goto	u4480
  6368     0CD6                     u4481:
  6369     0CD6  2CDF               	goto	l3392
  6370     0CD7                     u4480:
  6371     0CD7                     l3390:
  6372     0CD7  3000               	movlw	0
  6373     0CD8  00B5               	movwf	___flmul@b+3
  6374     0CD9  3000               	movlw	0
  6375     0CDA  00B4               	movwf	___flmul@b+2
  6376     0CDB  3000               	movlw	0
  6377     0CDC  00B3               	movwf	___flmul@b+1
  6378     0CDD  3000               	movlw	0
  6379     0CDE  00B2               	movwf	___flmul@b
  6380     0CDF                     l3392:
  6381     0CDF  17B4               	bsf	___flmul@b+2,7
  6382     0CE0  2CE9               	goto	l3396
  6383     0CE1                     l3394:
  6384     0CE1  3000               	movlw	0
  6385     0CE2  00B5               	movwf	___flmul@b+3
  6386     0CE3  3000               	movlw	0
  6387     0CE4  00B4               	movwf	___flmul@b+2
  6388     0CE5  3000               	movlw	0
  6389     0CE6  00B3               	movwf	___flmul@b+1
  6390     0CE7  3000               	movlw	0
  6391     0CE8  00B2               	movwf	___flmul@b
  6392     0CE9                     l3396:
  6393     0CE9  0839               	movf	___flmul@a+3,w
  6394     0CEA  3980               	andlw	128
  6395     0CEB  06BF               	xorwf	___flmul@sign,f
  6396     0CEC                     l3398:
  6397     0CEC  0839               	movf	___flmul@a+3,w
  6398     0CED  00BA               	movwf	??___flmul
  6399     0CEE  073A               	addwf	??___flmul,w
  6400     0CEF  00C0               	movwf	___flmul@aexp
  6401     0CF0                     l3400:
  6402     0CF0  1FB8               	btfss	___flmul@a+2,7
  6403     0CF1  2CF3               	goto	u4491
  6404     0CF2  2CF4               	goto	u4490
  6405     0CF3                     u4491:
  6406     0CF3  2CF5               	goto	l3404
  6407     0CF4                     u4490:
  6408     0CF4                     l3402:
  6409     0CF4  1440               	bsf	___flmul@aexp,0
  6410     0CF5                     l3404:
  6411     0CF5  0840               	movf	___flmul@aexp,w
  6412     0CF6  1903               	btfsc	3,2
  6413     0CF7  2CF9               	goto	u4501
  6414     0CF8  2CFA               	goto	u4500
  6415     0CF9                     u4501:
  6416     0CF9  2D09               	goto	l3412
  6417     0CFA                     u4500:
  6418     0CFA                     l3406:
  6419     0CFA  0A40               	incf	___flmul@aexp,w
  6420     0CFB  1D03               	btfss	3,2
  6421     0CFC  2CFE               	goto	u4511
  6422     0CFD  2CFF               	goto	u4510
  6423     0CFE                     u4511:
  6424     0CFE  2D07               	goto	l3410
  6425     0CFF                     u4510:
  6426     0CFF                     l3408:
  6427     0CFF  3000               	movlw	0
  6428     0D00  00B9               	movwf	___flmul@a+3
  6429     0D01  3000               	movlw	0
  6430     0D02  00B8               	movwf	___flmul@a+2
  6431     0D03  3000               	movlw	0
  6432     0D04  00B7               	movwf	___flmul@a+1
  6433     0D05  3000               	movlw	0
  6434     0D06  00B6               	movwf	___flmul@a
  6435     0D07                     l3410:
  6436     0D07  17B8               	bsf	___flmul@a+2,7
  6437     0D08  2D11               	goto	l3414
  6438     0D09                     l3412:
  6439     0D09  3000               	movlw	0
  6440     0D0A  00B9               	movwf	___flmul@a+3
  6441     0D0B  3000               	movlw	0
  6442     0D0C  00B8               	movwf	___flmul@a+2
  6443     0D0D  3000               	movlw	0
  6444     0D0E  00B7               	movwf	___flmul@a+1
  6445     0D0F  3000               	movlw	0
  6446     0D10  00B6               	movwf	___flmul@a
  6447     0D11                     l3414:
  6448     0D11  0840               	movf	___flmul@aexp,w
  6449     0D12  1903               	btfsc	3,2
  6450     0D13  2D15               	goto	u4521
  6451     0D14  2D16               	goto	u4520
  6452     0D15                     u4521:
  6453     0D15  2D1B               	goto	l3418
  6454     0D16                     u4520:
  6455     0D16                     l3416:
  6456     0D16  0845               	movf	___flmul@bexp,w
  6457     0D17  1D03               	btfss	3,2
  6458     0D18  2D1A               	goto	u4531
  6459     0D19  2D1B               	goto	u4530
  6460     0D1A                     u4531:
  6461     0D1A  2D24               	goto	l3422
  6462     0D1B                     u4530:
  6463     0D1B                     l3418:
  6464     0D1B  3000               	movlw	0
  6465     0D1C  00B5               	movwf	?___flmul+3
  6466     0D1D  3000               	movlw	0
  6467     0D1E  00B4               	movwf	?___flmul+2
  6468     0D1F  3000               	movlw	0
  6469     0D20  00B3               	movwf	?___flmul+1
  6470     0D21  3000               	movlw	0
  6471     0D22  00B2               	movwf	?___flmul
  6472     0D23  2FFF               	goto	l841
  6473     0D24                     l3422:
  6474     0D24  0832               	movf	___flmul@b,w
  6475     0D25  00F2               	movwf	__Umul8_16@multiplicand
  6476     0D26  0838               	movf	___flmul@a+2,w
  6477     0D27  160A  118A  2405  120A  158A  	fcall	__Umul8_16
  6478     0D2C  0873               	movf	?__Umul8_16+1,w
  6479     0D2D  1283               	bcf	3,5	;RP0=0, select bank0
  6480     0D2E  1303               	bcf	3,6	;RP1=0, select bank0
  6481     0D2F  00CB               	movwf	___flmul@temp+1
  6482     0D30  0872               	movf	?__Umul8_16,w
  6483     0D31  00CA               	movwf	___flmul@temp
  6484     0D32                     l3424:
  6485     0D32  084A               	movf	___flmul@temp,w
  6486     0D33  00BA               	movwf	??___flmul
  6487     0D34  01BB               	clrf	??___flmul+1
  6488     0D35  01BC               	clrf	??___flmul+2
  6489     0D36  01BD               	clrf	??___flmul+3
  6490     0D37  083D               	movf	??___flmul+3,w
  6491     0D38  00C4               	movwf	___flmul@grs+3
  6492     0D39  083C               	movf	??___flmul+2,w
  6493     0D3A  00C3               	movwf	___flmul@grs+2
  6494     0D3B  083B               	movf	??___flmul+1,w
  6495     0D3C  00C2               	movwf	___flmul@grs+1
  6496     0D3D  083A               	movf	??___flmul,w
  6497     0D3E  00C1               	movwf	___flmul@grs
  6498     0D3F                     l3426:
  6499     0D3F  084B               	movf	___flmul@temp+1,w
  6500     0D40  00BA               	movwf	??___flmul
  6501     0D41  01BB               	clrf	??___flmul+1
  6502     0D42  01BC               	clrf	??___flmul+2
  6503     0D43  01BD               	clrf	??___flmul+3
  6504     0D44  083D               	movf	??___flmul+3,w
  6505     0D45  00C9               	movwf	___flmul@prod+3
  6506     0D46  083C               	movf	??___flmul+2,w
  6507     0D47  00C8               	movwf	___flmul@prod+2
  6508     0D48  083B               	movf	??___flmul+1,w
  6509     0D49  00C7               	movwf	___flmul@prod+1
  6510     0D4A  083A               	movf	??___flmul,w
  6511     0D4B  00C6               	movwf	___flmul@prod
  6512     0D4C  0833               	movf	___flmul@b+1,w
  6513     0D4D  00F2               	movwf	__Umul8_16@multiplicand
  6514     0D4E  0837               	movf	___flmul@a+1,w
  6515     0D4F  160A  118A  2405  120A  158A  	fcall	__Umul8_16
  6516     0D54  0873               	movf	?__Umul8_16+1,w
  6517     0D55  1283               	bcf	3,5	;RP0=0, select bank0
  6518     0D56  1303               	bcf	3,6	;RP1=0, select bank0
  6519     0D57  00CB               	movwf	___flmul@temp+1
  6520     0D58  0872               	movf	?__Umul8_16,w
  6521     0D59  00CA               	movwf	___flmul@temp
  6522     0D5A                     l3428:
  6523     0D5A  084A               	movf	___flmul@temp,w
  6524     0D5B  00BA               	movwf	??___flmul
  6525     0D5C  01BB               	clrf	??___flmul+1
  6526     0D5D  01BC               	clrf	??___flmul+2
  6527     0D5E  01BD               	clrf	??___flmul+3
  6528     0D5F  083A               	movf	??___flmul,w
  6529     0D60  07C1               	addwf	___flmul@grs,f
  6530     0D61  083B               	movf	??___flmul+1,w
  6531     0D62  1103               	clrz
  6532     0D63  1803               	skipnc
  6533     0D64  3E01               	addlw	1
  6534     0D65  1903               	skipnz
  6535     0D66  2D68               	goto	u4541
  6536     0D67  07C2               	addwf	___flmul@grs+1,f
  6537     0D68                     u4541:
  6538     0D68  083C               	movf	??___flmul+2,w
  6539     0D69  1103               	clrz
  6540     0D6A  1803               	skipnc
  6541     0D6B  3E01               	addlw	1
  6542     0D6C  1903               	skipnz
  6543     0D6D  2D6F               	goto	u4542
  6544     0D6E  07C3               	addwf	___flmul@grs+2,f
  6545     0D6F                     u4542:
  6546     0D6F  083D               	movf	??___flmul+3,w
  6547     0D70  1103               	clrz
  6548     0D71  1803               	skipnc
  6549     0D72  3E01               	addlw	1
  6550     0D73  1903               	skipnz
  6551     0D74  2D76               	goto	u4543
  6552     0D75  07C4               	addwf	___flmul@grs+3,f
  6553     0D76                     u4543:
  6554     0D76                     l3430:
  6555     0D76  084B               	movf	___flmul@temp+1,w
  6556     0D77  00BA               	movwf	??___flmul
  6557     0D78  01BB               	clrf	??___flmul+1
  6558     0D79  01BC               	clrf	??___flmul+2
  6559     0D7A  01BD               	clrf	??___flmul+3
  6560     0D7B  083A               	movf	??___flmul,w
  6561     0D7C  07C6               	addwf	___flmul@prod,f
  6562     0D7D  083B               	movf	??___flmul+1,w
  6563     0D7E  1103               	clrz
  6564     0D7F  1803               	skipnc
  6565     0D80  3E01               	addlw	1
  6566     0D81  1903               	skipnz
  6567     0D82  2D84               	goto	u4551
  6568     0D83  07C7               	addwf	___flmul@prod+1,f
  6569     0D84                     u4551:
  6570     0D84  083C               	movf	??___flmul+2,w
  6571     0D85  1103               	clrz
  6572     0D86  1803               	skipnc
  6573     0D87  3E01               	addlw	1
  6574     0D88  1903               	skipnz
  6575     0D89  2D8B               	goto	u4552
  6576     0D8A  07C8               	addwf	___flmul@prod+2,f
  6577     0D8B                     u4552:
  6578     0D8B  083D               	movf	??___flmul+3,w
  6579     0D8C  1103               	clrz
  6580     0D8D  1803               	skipnc
  6581     0D8E  3E01               	addlw	1
  6582     0D8F  1903               	skipnz
  6583     0D90  2D92               	goto	u4553
  6584     0D91  07C9               	addwf	___flmul@prod+3,f
  6585     0D92                     u4553:
  6586     0D92  0834               	movf	___flmul@b+2,w
  6587     0D93  00F2               	movwf	__Umul8_16@multiplicand
  6588     0D94  0836               	movf	___flmul@a,w
  6589     0D95  160A  118A  2405  120A  158A  	fcall	__Umul8_16
  6590     0D9A  0873               	movf	?__Umul8_16+1,w
  6591     0D9B  1283               	bcf	3,5	;RP0=0, select bank0
  6592     0D9C  1303               	bcf	3,6	;RP1=0, select bank0
  6593     0D9D  00CB               	movwf	___flmul@temp+1
  6594     0D9E  0872               	movf	?__Umul8_16,w
  6595     0D9F  00CA               	movwf	___flmul@temp
  6596     0DA0                     l3432:
  6597     0DA0  084A               	movf	___flmul@temp,w
  6598     0DA1  00BA               	movwf	??___flmul
  6599     0DA2  01BB               	clrf	??___flmul+1
  6600     0DA3  01BC               	clrf	??___flmul+2
  6601     0DA4  01BD               	clrf	??___flmul+3
  6602     0DA5  083A               	movf	??___flmul,w
  6603     0DA6  07C1               	addwf	___flmul@grs,f
  6604     0DA7  083B               	movf	??___flmul+1,w
  6605     0DA8  1103               	clrz
  6606     0DA9  1803               	skipnc
  6607     0DAA  3E01               	addlw	1
  6608     0DAB  1903               	skipnz
  6609     0DAC  2DAE               	goto	u4561
  6610     0DAD  07C2               	addwf	___flmul@grs+1,f
  6611     0DAE                     u4561:
  6612     0DAE  083C               	movf	??___flmul+2,w
  6613     0DAF  1103               	clrz
  6614     0DB0  1803               	skipnc
  6615     0DB1  3E01               	addlw	1
  6616     0DB2  1903               	skipnz
  6617     0DB3  2DB5               	goto	u4562
  6618     0DB4  07C3               	addwf	___flmul@grs+2,f
  6619     0DB5                     u4562:
  6620     0DB5  083D               	movf	??___flmul+3,w
  6621     0DB6  1103               	clrz
  6622     0DB7  1803               	skipnc
  6623     0DB8  3E01               	addlw	1
  6624     0DB9  1903               	skipnz
  6625     0DBA  2DBC               	goto	u4563
  6626     0DBB  07C4               	addwf	___flmul@grs+3,f
  6627     0DBC                     u4563:
  6628     0DBC                     l3434:
  6629     0DBC  084B               	movf	___flmul@temp+1,w
  6630     0DBD  00BA               	movwf	??___flmul
  6631     0DBE  01BB               	clrf	??___flmul+1
  6632     0DBF  01BC               	clrf	??___flmul+2
  6633     0DC0  01BD               	clrf	??___flmul+3
  6634     0DC1  083A               	movf	??___flmul,w
  6635     0DC2  07C6               	addwf	___flmul@prod,f
  6636     0DC3  083B               	movf	??___flmul+1,w
  6637     0DC4  1103               	clrz
  6638     0DC5  1803               	skipnc
  6639     0DC6  3E01               	addlw	1
  6640     0DC7  1903               	skipnz
  6641     0DC8  2DCA               	goto	u4571
  6642     0DC9  07C7               	addwf	___flmul@prod+1,f
  6643     0DCA                     u4571:
  6644     0DCA  083C               	movf	??___flmul+2,w
  6645     0DCB  1103               	clrz
  6646     0DCC  1803               	skipnc
  6647     0DCD  3E01               	addlw	1
  6648     0DCE  1903               	skipnz
  6649     0DCF  2DD1               	goto	u4572
  6650     0DD0  07C8               	addwf	___flmul@prod+2,f
  6651     0DD1                     u4572:
  6652     0DD1  083D               	movf	??___flmul+3,w
  6653     0DD2  1103               	clrz
  6654     0DD3  1803               	skipnc
  6655     0DD4  3E01               	addlw	1
  6656     0DD5  1903               	skipnz
  6657     0DD6  2DD8               	goto	u4573
  6658     0DD7  07C9               	addwf	___flmul@prod+3,f
  6659     0DD8                     u4573:
  6660     0DD8                     l3436:
  6661     0DD8  3008               	movlw	8
  6662     0DD9  00BA               	movwf	??___flmul
  6663     0DDA                     u4585:
  6664     0DDA  1003               	clrc
  6665     0DDB  0DC1               	rlf	___flmul@grs,f
  6666     0DDC  0DC2               	rlf	___flmul@grs+1,f
  6667     0DDD  0DC3               	rlf	___flmul@grs+2,f
  6668     0DDE  0DC4               	rlf	___flmul@grs+3,f
  6669     0DDF  0BBA               	decfsz	??___flmul,f
  6670     0DE0  2DDA               	goto	u4585
  6671     0DE1                     l3438:
  6672     0DE1  0833               	movf	___flmul@b+1,w
  6673     0DE2  00F2               	movwf	__Umul8_16@multiplicand
  6674     0DE3  0836               	movf	___flmul@a,w
  6675     0DE4  160A  118A  2405  120A  158A  	fcall	__Umul8_16
  6676     0DE9  0873               	movf	?__Umul8_16+1,w
  6677     0DEA  1283               	bcf	3,5	;RP0=0, select bank0
  6678     0DEB  1303               	bcf	3,6	;RP1=0, select bank0
  6679     0DEC  00CB               	movwf	___flmul@temp+1
  6680     0DED  0872               	movf	?__Umul8_16,w
  6681     0DEE  00CA               	movwf	___flmul@temp
  6682     0DEF                     l3440:
  6683     0DEF  084A               	movf	___flmul@temp,w
  6684     0DF0  00BA               	movwf	??___flmul
  6685     0DF1  084B               	movf	___flmul@temp+1,w
  6686     0DF2  00BB               	movwf	??___flmul+1
  6687     0DF3  01BC               	clrf	??___flmul+2
  6688     0DF4  01BD               	clrf	??___flmul+3
  6689     0DF5  083A               	movf	??___flmul,w
  6690     0DF6  07C1               	addwf	___flmul@grs,f
  6691     0DF7  083B               	movf	??___flmul+1,w
  6692     0DF8  1103               	clrz
  6693     0DF9  1803               	skipnc
  6694     0DFA  3E01               	addlw	1
  6695     0DFB  1903               	skipnz
  6696     0DFC  2DFE               	goto	u4591
  6697     0DFD  07C2               	addwf	___flmul@grs+1,f
  6698     0DFE                     u4591:
  6699     0DFE  083C               	movf	??___flmul+2,w
  6700     0DFF  1103               	clrz
  6701     0E00  1803               	skipnc
  6702     0E01  3E01               	addlw	1
  6703     0E02  1903               	skipnz
  6704     0E03  2E05               	goto	u4592
  6705     0E04  07C3               	addwf	___flmul@grs+2,f
  6706     0E05                     u4592:
  6707     0E05  083D               	movf	??___flmul+3,w
  6708     0E06  1103               	clrz
  6709     0E07  1803               	skipnc
  6710     0E08  3E01               	addlw	1
  6711     0E09  1903               	skipnz
  6712     0E0A  2E0C               	goto	u4593
  6713     0E0B  07C4               	addwf	___flmul@grs+3,f
  6714     0E0C                     u4593:
  6715     0E0C                     l3442:
  6716     0E0C  0832               	movf	___flmul@b,w
  6717     0E0D  00F2               	movwf	__Umul8_16@multiplicand
  6718     0E0E  0837               	movf	___flmul@a+1,w
  6719     0E0F  160A  118A  2405  120A  158A  	fcall	__Umul8_16
  6720     0E14  0873               	movf	?__Umul8_16+1,w
  6721     0E15  1283               	bcf	3,5	;RP0=0, select bank0
  6722     0E16  1303               	bcf	3,6	;RP1=0, select bank0
  6723     0E17  00CB               	movwf	___flmul@temp+1
  6724     0E18  0872               	movf	?__Umul8_16,w
  6725     0E19  00CA               	movwf	___flmul@temp
  6726     0E1A                     l3444:
  6727     0E1A  084A               	movf	___flmul@temp,w
  6728     0E1B  00BA               	movwf	??___flmul
  6729     0E1C  084B               	movf	___flmul@temp+1,w
  6730     0E1D  00BB               	movwf	??___flmul+1
  6731     0E1E  01BC               	clrf	??___flmul+2
  6732     0E1F  01BD               	clrf	??___flmul+3
  6733     0E20  083A               	movf	??___flmul,w
  6734     0E21  07C1               	addwf	___flmul@grs,f
  6735     0E22  083B               	movf	??___flmul+1,w
  6736     0E23  1103               	clrz
  6737     0E24  1803               	skipnc
  6738     0E25  3E01               	addlw	1
  6739     0E26  1903               	skipnz
  6740     0E27  2E29               	goto	u4601
  6741     0E28  07C2               	addwf	___flmul@grs+1,f
  6742     0E29                     u4601:
  6743     0E29  083C               	movf	??___flmul+2,w
  6744     0E2A  1103               	clrz
  6745     0E2B  1803               	skipnc
  6746     0E2C  3E01               	addlw	1
  6747     0E2D  1903               	skipnz
  6748     0E2E  2E30               	goto	u4602
  6749     0E2F  07C3               	addwf	___flmul@grs+2,f
  6750     0E30                     u4602:
  6751     0E30  083D               	movf	??___flmul+3,w
  6752     0E31  1103               	clrz
  6753     0E32  1803               	skipnc
  6754     0E33  3E01               	addlw	1
  6755     0E34  1903               	skipnz
  6756     0E35  2E37               	goto	u4603
  6757     0E36  07C4               	addwf	___flmul@grs+3,f
  6758     0E37                     u4603:
  6759     0E37                     l3446:
  6760     0E37  3008               	movlw	8
  6761     0E38  00BA               	movwf	??___flmul
  6762     0E39                     u4615:
  6763     0E39  1003               	clrc
  6764     0E3A  0DC1               	rlf	___flmul@grs,f
  6765     0E3B  0DC2               	rlf	___flmul@grs+1,f
  6766     0E3C  0DC3               	rlf	___flmul@grs+2,f
  6767     0E3D  0DC4               	rlf	___flmul@grs+3,f
  6768     0E3E  0BBA               	decfsz	??___flmul,f
  6769     0E3F  2E39               	goto	u4615
  6770     0E40  0832               	movf	___flmul@b,w
  6771     0E41  00F2               	movwf	__Umul8_16@multiplicand
  6772     0E42  0836               	movf	___flmul@a,w
  6773     0E43  160A  118A  2405  120A  158A  	fcall	__Umul8_16
  6774     0E48  0873               	movf	?__Umul8_16+1,w
  6775     0E49  1283               	bcf	3,5	;RP0=0, select bank0
  6776     0E4A  1303               	bcf	3,6	;RP1=0, select bank0
  6777     0E4B  00CB               	movwf	___flmul@temp+1
  6778     0E4C  0872               	movf	?__Umul8_16,w
  6779     0E4D  00CA               	movwf	___flmul@temp
  6780     0E4E                     l3448:
  6781     0E4E  084A               	movf	___flmul@temp,w
  6782     0E4F  00BA               	movwf	??___flmul
  6783     0E50  084B               	movf	___flmul@temp+1,w
  6784     0E51  00BB               	movwf	??___flmul+1
  6785     0E52  01BC               	clrf	??___flmul+2
  6786     0E53  01BD               	clrf	??___flmul+3
  6787     0E54  083A               	movf	??___flmul,w
  6788     0E55  07C1               	addwf	___flmul@grs,f
  6789     0E56  083B               	movf	??___flmul+1,w
  6790     0E57  1103               	clrz
  6791     0E58  1803               	skipnc
  6792     0E59  3E01               	addlw	1
  6793     0E5A  1903               	skipnz
  6794     0E5B  2E5D               	goto	u4621
  6795     0E5C  07C2               	addwf	___flmul@grs+1,f
  6796     0E5D                     u4621:
  6797     0E5D  083C               	movf	??___flmul+2,w
  6798     0E5E  1103               	clrz
  6799     0E5F  1803               	skipnc
  6800     0E60  3E01               	addlw	1
  6801     0E61  1903               	skipnz
  6802     0E62  2E64               	goto	u4622
  6803     0E63  07C3               	addwf	___flmul@grs+2,f
  6804     0E64                     u4622:
  6805     0E64  083D               	movf	??___flmul+3,w
  6806     0E65  1103               	clrz
  6807     0E66  1803               	skipnc
  6808     0E67  3E01               	addlw	1
  6809     0E68  1903               	skipnz
  6810     0E69  2E6B               	goto	u4623
  6811     0E6A  07C4               	addwf	___flmul@grs+3,f
  6812     0E6B                     u4623:
  6813     0E6B                     l3450:
  6814     0E6B  0833               	movf	___flmul@b+1,w
  6815     0E6C  00F2               	movwf	__Umul8_16@multiplicand
  6816     0E6D  0838               	movf	___flmul@a+2,w
  6817     0E6E  160A  118A  2405  120A  158A  	fcall	__Umul8_16
  6818     0E73  0873               	movf	?__Umul8_16+1,w
  6819     0E74  1283               	bcf	3,5	;RP0=0, select bank0
  6820     0E75  1303               	bcf	3,6	;RP1=0, select bank0
  6821     0E76  00CB               	movwf	___flmul@temp+1
  6822     0E77  0872               	movf	?__Umul8_16,w
  6823     0E78  00CA               	movwf	___flmul@temp
  6824     0E79  084A               	movf	___flmul@temp,w
  6825     0E7A  00BA               	movwf	??___flmul
  6826     0E7B  084B               	movf	___flmul@temp+1,w
  6827     0E7C  00BB               	movwf	??___flmul+1
  6828     0E7D  01BC               	clrf	??___flmul+2
  6829     0E7E  01BD               	clrf	??___flmul+3
  6830     0E7F  083A               	movf	??___flmul,w
  6831     0E80  07C6               	addwf	___flmul@prod,f
  6832     0E81  083B               	movf	??___flmul+1,w
  6833     0E82  1103               	clrz
  6834     0E83  1803               	skipnc
  6835     0E84  3E01               	addlw	1
  6836     0E85  1903               	skipnz
  6837     0E86  2E88               	goto	u4631
  6838     0E87  07C7               	addwf	___flmul@prod+1,f
  6839     0E88                     u4631:
  6840     0E88  083C               	movf	??___flmul+2,w
  6841     0E89  1103               	clrz
  6842     0E8A  1803               	skipnc
  6843     0E8B  3E01               	addlw	1
  6844     0E8C  1903               	skipnz
  6845     0E8D  2E8F               	goto	u4632
  6846     0E8E  07C8               	addwf	___flmul@prod+2,f
  6847     0E8F                     u4632:
  6848     0E8F  083D               	movf	??___flmul+3,w
  6849     0E90  1103               	clrz
  6850     0E91  1803               	skipnc
  6851     0E92  3E01               	addlw	1
  6852     0E93  1903               	skipnz
  6853     0E94  2E96               	goto	u4633
  6854     0E95  07C9               	addwf	___flmul@prod+3,f
  6855     0E96                     u4633:
  6856     0E96                     l3452:
  6857     0E96  0834               	movf	___flmul@b+2,w
  6858     0E97  00F2               	movwf	__Umul8_16@multiplicand
  6859     0E98  0837               	movf	___flmul@a+1,w
  6860     0E99  160A  118A  2405  120A  158A  	fcall	__Umul8_16
  6861     0E9E  0873               	movf	?__Umul8_16+1,w
  6862     0E9F  1283               	bcf	3,5	;RP0=0, select bank0
  6863     0EA0  1303               	bcf	3,6	;RP1=0, select bank0
  6864     0EA1  00CB               	movwf	___flmul@temp+1
  6865     0EA2  0872               	movf	?__Umul8_16,w
  6866     0EA3  00CA               	movwf	___flmul@temp
  6867     0EA4                     l3454:
  6868     0EA4  084A               	movf	___flmul@temp,w
  6869     0EA5  00BA               	movwf	??___flmul
  6870     0EA6  084B               	movf	___flmul@temp+1,w
  6871     0EA7  00BB               	movwf	??___flmul+1
  6872     0EA8  01BC               	clrf	??___flmul+2
  6873     0EA9  01BD               	clrf	??___flmul+3
  6874     0EAA  083A               	movf	??___flmul,w
  6875     0EAB  07C6               	addwf	___flmul@prod,f
  6876     0EAC  083B               	movf	??___flmul+1,w
  6877     0EAD  1103               	clrz
  6878     0EAE  1803               	skipnc
  6879     0EAF  3E01               	addlw	1
  6880     0EB0  1903               	skipnz
  6881     0EB1  2EB3               	goto	u4641
  6882     0EB2  07C7               	addwf	___flmul@prod+1,f
  6883     0EB3                     u4641:
  6884     0EB3  083C               	movf	??___flmul+2,w
  6885     0EB4  1103               	clrz
  6886     0EB5  1803               	skipnc
  6887     0EB6  3E01               	addlw	1
  6888     0EB7  1903               	skipnz
  6889     0EB8  2EBA               	goto	u4642
  6890     0EB9  07C8               	addwf	___flmul@prod+2,f
  6891     0EBA                     u4642:
  6892     0EBA  083D               	movf	??___flmul+3,w
  6893     0EBB  1103               	clrz
  6894     0EBC  1803               	skipnc
  6895     0EBD  3E01               	addlw	1
  6896     0EBE  1903               	skipnz
  6897     0EBF  2EC1               	goto	u4643
  6898     0EC0  07C9               	addwf	___flmul@prod+3,f
  6899     0EC1                     u4643:
  6900     0EC1  0834               	movf	___flmul@b+2,w
  6901     0EC2  00F2               	movwf	__Umul8_16@multiplicand
  6902     0EC3  0838               	movf	___flmul@a+2,w
  6903     0EC4  160A  118A  2405  120A  158A  	fcall	__Umul8_16
  6904     0EC9  0873               	movf	?__Umul8_16+1,w
  6905     0ECA  1283               	bcf	3,5	;RP0=0, select bank0
  6906     0ECB  1303               	bcf	3,6	;RP1=0, select bank0
  6907     0ECC  00CB               	movwf	___flmul@temp+1
  6908     0ECD  0872               	movf	?__Umul8_16,w
  6909     0ECE  00CA               	movwf	___flmul@temp
  6910     0ECF                     l3456:
  6911     0ECF  084A               	movf	___flmul@temp,w
  6912     0ED0  00BA               	movwf	??___flmul
  6913     0ED1  084B               	movf	___flmul@temp+1,w
  6914     0ED2  00BB               	movwf	??___flmul+1
  6915     0ED3  01BC               	clrf	??___flmul+2
  6916     0ED4  01BD               	clrf	??___flmul+3
  6917     0ED5  3008               	movlw	8
  6918     0ED6                     u4655:
  6919     0ED6  1003               	clrc
  6920     0ED7  0DBA               	rlf	??___flmul,f
  6921     0ED8  0DBB               	rlf	??___flmul+1,f
  6922     0ED9  0DBC               	rlf	??___flmul+2,f
  6923     0EDA  0DBD               	rlf	??___flmul+3,f
  6924     0EDB                     u4650:
  6925     0EDB  3EFF               	addlw	-1
  6926     0EDC  1D03               	skipz
  6927     0EDD  2ED6               	goto	u4655
  6928     0EDE  083A               	movf	??___flmul,w
  6929     0EDF  07C6               	addwf	___flmul@prod,f
  6930     0EE0  083B               	movf	??___flmul+1,w
  6931     0EE1  1103               	clrz
  6932     0EE2  1803               	skipnc
  6933     0EE3  3E01               	addlw	1
  6934     0EE4  1903               	skipnz
  6935     0EE5  2EE7               	goto	u4661
  6936     0EE6  07C7               	addwf	___flmul@prod+1,f
  6937     0EE7                     u4661:
  6938     0EE7  083C               	movf	??___flmul+2,w
  6939     0EE8  1103               	clrz
  6940     0EE9  1803               	skipnc
  6941     0EEA  3E01               	addlw	1
  6942     0EEB  1903               	skipnz
  6943     0EEC  2EEE               	goto	u4662
  6944     0EED  07C8               	addwf	___flmul@prod+2,f
  6945     0EEE                     u4662:
  6946     0EEE  083D               	movf	??___flmul+3,w
  6947     0EEF  1103               	clrz
  6948     0EF0  1803               	skipnc
  6949     0EF1  3E01               	addlw	1
  6950     0EF2  1903               	skipnz
  6951     0EF3  2EF5               	goto	u4663
  6952     0EF4  07C9               	addwf	___flmul@prod+3,f
  6953     0EF5                     u4663:
  6954     0EF5                     l3458:
  6955     0EF5  0841               	movf	___flmul@grs,w
  6956     0EF6  00BA               	movwf	??___flmul
  6957     0EF7  0842               	movf	___flmul@grs+1,w
  6958     0EF8  00BB               	movwf	??___flmul+1
  6959     0EF9  0843               	movf	___flmul@grs+2,w
  6960     0EFA  00BC               	movwf	??___flmul+2
  6961     0EFB  0844               	movf	___flmul@grs+3,w
  6962     0EFC  00BD               	movwf	??___flmul+3
  6963     0EFD  3018               	movlw	24
  6964     0EFE                     u4675:
  6965     0EFE  1003               	clrc
  6966     0EFF  0CBD               	rrf	??___flmul+3,f
  6967     0F00  0CBC               	rrf	??___flmul+2,f
  6968     0F01  0CBB               	rrf	??___flmul+1,f
  6969     0F02  0CBA               	rrf	??___flmul,f
  6970     0F03                     u4670:
  6971     0F03  3EFF               	addlw	-1
  6972     0F04  1D03               	skipz
  6973     0F05  2EFE               	goto	u4675
  6974     0F06  083A               	movf	??___flmul,w
  6975     0F07  07C6               	addwf	___flmul@prod,f
  6976     0F08  083B               	movf	??___flmul+1,w
  6977     0F09  1103               	clrz
  6978     0F0A  1803               	skipnc
  6979     0F0B  3E01               	addlw	1
  6980     0F0C  1903               	skipnz
  6981     0F0D  2F0F               	goto	u4681
  6982     0F0E  07C7               	addwf	___flmul@prod+1,f
  6983     0F0F                     u4681:
  6984     0F0F  083C               	movf	??___flmul+2,w
  6985     0F10  1103               	clrz
  6986     0F11  1803               	skipnc
  6987     0F12  3E01               	addlw	1
  6988     0F13  1903               	skipnz
  6989     0F14  2F16               	goto	u4682
  6990     0F15  07C8               	addwf	___flmul@prod+2,f
  6991     0F16                     u4682:
  6992     0F16  083D               	movf	??___flmul+3,w
  6993     0F17  1103               	clrz
  6994     0F18  1803               	skipnc
  6995     0F19  3E01               	addlw	1
  6996     0F1A  1903               	skipnz
  6997     0F1B  2F1D               	goto	u4683
  6998     0F1C  07C9               	addwf	___flmul@prod+3,f
  6999     0F1D                     u4683:
  7000     0F1D                     l3460:
  7001     0F1D  3008               	movlw	8
  7002     0F1E  00BA               	movwf	??___flmul
  7003     0F1F                     u4695:
  7004     0F1F  1003               	clrc
  7005     0F20  0DC1               	rlf	___flmul@grs,f
  7006     0F21  0DC2               	rlf	___flmul@grs+1,f
  7007     0F22  0DC3               	rlf	___flmul@grs+2,f
  7008     0F23  0DC4               	rlf	___flmul@grs+3,f
  7009     0F24  0BBA               	decfsz	??___flmul,f
  7010     0F25  2F1F               	goto	u4695
  7011     0F26                     l3462:
  7012     0F26  0845               	movf	___flmul@bexp,w
  7013     0F27  0740               	addwf	___flmul@aexp,w
  7014     0F28  00BA               	movwf	??___flmul
  7015     0F29  01BB               	clrf	??___flmul+1
  7016     0F2A  0DBB               	rlf	??___flmul+1,f
  7017     0F2B  083A               	movf	??___flmul,w
  7018     0F2C  3E82               	addlw	130
  7019     0F2D  00CA               	movwf	___flmul@temp
  7020     0F2E  083B               	movf	??___flmul+1,w
  7021     0F2F  1803               	skipnc
  7022     0F30  3E01               	addlw	1
  7023     0F31  3EFF               	addlw	255
  7024     0F32  00CB               	movwf	___flmul@temp+1
  7025     0F33  2F51               	goto	l3474
  7026     0F34                     l3464:
  7027     0F34  3001               	movlw	1
  7028     0F35  00BA               	movwf	??___flmul
  7029     0F36                     u4705:
  7030     0F36  1003               	clrc
  7031     0F37  0DC6               	rlf	___flmul@prod,f
  7032     0F38  0DC7               	rlf	___flmul@prod+1,f
  7033     0F39  0DC8               	rlf	___flmul@prod+2,f
  7034     0F3A  0DC9               	rlf	___flmul@prod+3,f
  7035     0F3B  0BBA               	decfsz	??___flmul,f
  7036     0F3C  2F36               	goto	u4705
  7037     0F3D                     l3466:
  7038     0F3D  1FC4               	btfss	___flmul@grs+3,7
  7039     0F3E  2F40               	goto	u4711
  7040     0F3F  2F41               	goto	u4710
  7041     0F40                     u4711:
  7042     0F40  2F42               	goto	l3470
  7043     0F41                     u4710:
  7044     0F41                     l3468:
  7045     0F41  1446               	bsf	___flmul@prod,0
  7046     0F42                     l3470:
  7047     0F42  3001               	movlw	1
  7048     0F43  00BA               	movwf	??___flmul
  7049     0F44                     u4725:
  7050     0F44  1003               	clrc
  7051     0F45  0DC1               	rlf	___flmul@grs,f
  7052     0F46  0DC2               	rlf	___flmul@grs+1,f
  7053     0F47  0DC3               	rlf	___flmul@grs+2,f
  7054     0F48  0DC4               	rlf	___flmul@grs+3,f
  7055     0F49  0BBA               	decfsz	??___flmul,f
  7056     0F4A  2F44               	goto	u4725
  7057     0F4B                     l3472:
  7058     0F4B  30FF               	movlw	255
  7059     0F4C  07CA               	addwf	___flmul@temp,f
  7060     0F4D  1803               	skipnc
  7061     0F4E  0ACB               	incf	___flmul@temp+1,f
  7062     0F4F  30FF               	movlw	255
  7063     0F50  07CB               	addwf	___flmul@temp+1,f
  7064     0F51                     l3474:
  7065     0F51  1FC8               	btfss	___flmul@prod+2,7
  7066     0F52  2F54               	goto	u4731
  7067     0F53  2F55               	goto	u4730
  7068     0F54                     u4731:
  7069     0F54  2F34               	goto	l3464
  7070     0F55                     u4730:
  7071     0F55                     l3476:
  7072     0F55  01C0               	clrf	___flmul@aexp
  7073     0F56                     l3478:
  7074     0F56  1FC4               	btfss	___flmul@grs+3,7
  7075     0F57  2F59               	goto	u4741
  7076     0F58  2F5A               	goto	u4740
  7077     0F59                     u4741:
  7078     0F59  2F76               	goto	l3486
  7079     0F5A                     u4740:
  7080     0F5A                     l3480:
  7081     0F5A  30FF               	movlw	255
  7082     0F5B  0541               	andwf	___flmul@grs,w
  7083     0F5C  00BA               	movwf	??___flmul
  7084     0F5D  30FF               	movlw	255
  7085     0F5E  0542               	andwf	___flmul@grs+1,w
  7086     0F5F  00BB               	movwf	??___flmul+1
  7087     0F60  30FF               	movlw	255
  7088     0F61  0543               	andwf	___flmul@grs+2,w
  7089     0F62  00BC               	movwf	??___flmul+2
  7090     0F63  307F               	movlw	127
  7091     0F64  0544               	andwf	___flmul@grs+3,w
  7092     0F65  00BD               	movwf	??___flmul+3
  7093     0F66  083D               	movf	??___flmul+3,w
  7094     0F67  043C               	iorwf	??___flmul+2,w
  7095     0F68  043B               	iorwf	??___flmul+1,w
  7096     0F69  043A               	iorwf	??___flmul,w
  7097     0F6A  1903               	skipnz
  7098     0F6B  2F6D               	goto	u4751
  7099     0F6C  2F6E               	goto	u4750
  7100     0F6D                     u4751:
  7101     0F6D  2F71               	goto	l847
  7102     0F6E                     u4750:
  7103     0F6E                     l3482:
  7104     0F6E  3001               	movlw	1
  7105     0F6F  00C0               	movwf	___flmul@aexp
  7106     0F70  2F76               	goto	l3486
  7107     0F71                     l847:
  7108     0F71  1C46               	btfss	___flmul@prod,0
  7109     0F72  2F74               	goto	u4761
  7110     0F73  2F75               	goto	u4760
  7111     0F74                     u4761:
  7112     0F74  2F76               	goto	l3486
  7113     0F75                     u4760:
  7114     0F75  2F6E               	goto	l3482
  7115     0F76                     l3486:
  7116     0F76  0840               	movf	___flmul@aexp,w
  7117     0F77  1903               	btfsc	3,2
  7118     0F78  2F7A               	goto	u4771
  7119     0F79  2F7B               	goto	u4770
  7120     0F7A                     u4771:
  7121     0F7A  2FAC               	goto	l3496
  7122     0F7B                     u4770:
  7123     0F7B                     l3488:
  7124     0F7B  3001               	movlw	1
  7125     0F7C  07C6               	addwf	___flmul@prod,f
  7126     0F7D  3000               	movlw	0
  7127     0F7E  1803               	skipnc
  7128     0F7F  3001               	movlw	1
  7129     0F80  07C7               	addwf	___flmul@prod+1,f
  7130     0F81  3000               	movlw	0
  7131     0F82  1803               	skipnc
  7132     0F83  3001               	movlw	1
  7133     0F84  07C8               	addwf	___flmul@prod+2,f
  7134     0F85  3000               	movlw	0
  7135     0F86  1803               	skipnc
  7136     0F87  3001               	movlw	1
  7137     0F88  07C9               	addwf	___flmul@prod+3,f
  7138     0F89                     l3490:
  7139     0F89  1C49               	btfss	___flmul@prod+3,0
  7140     0F8A  2F8C               	goto	u4781
  7141     0F8B  2F8D               	goto	u4780
  7142     0F8C                     u4781:
  7143     0F8C  2FAC               	goto	l3496
  7144     0F8D                     u4780:
  7145     0F8D                     l3492:
  7146     0F8D  0846               	movf	___flmul@prod,w
  7147     0F8E  00BA               	movwf	??___flmul
  7148     0F8F  0847               	movf	___flmul@prod+1,w
  7149     0F90  00BB               	movwf	??___flmul+1
  7150     0F91  0848               	movf	___flmul@prod+2,w
  7151     0F92  00BC               	movwf	??___flmul+2
  7152     0F93  0849               	movf	___flmul@prod+3,w
  7153     0F94  00BD               	movwf	??___flmul+3
  7154     0F95  3001               	movlw	1
  7155     0F96  00BE               	movwf	??___flmul+4
  7156     0F97                     u4795:
  7157     0F97  0D3D               	rlf	??___flmul+3,w
  7158     0F98  0CBD               	rrf	??___flmul+3,f
  7159     0F99  0CBC               	rrf	??___flmul+2,f
  7160     0F9A  0CBB               	rrf	??___flmul+1,f
  7161     0F9B  0CBA               	rrf	??___flmul,f
  7162     0F9C                     u4790:
  7163     0F9C  0BBE               	decfsz	??___flmul+4,f
  7164     0F9D  2F97               	goto	u4795
  7165     0F9E  083D               	movf	??___flmul+3,w
  7166     0F9F  00C9               	movwf	___flmul@prod+3
  7167     0FA0  083C               	movf	??___flmul+2,w
  7168     0FA1  00C8               	movwf	___flmul@prod+2
  7169     0FA2  083B               	movf	??___flmul+1,w
  7170     0FA3  00C7               	movwf	___flmul@prod+1
  7171     0FA4  083A               	movf	??___flmul,w
  7172     0FA5  00C6               	movwf	___flmul@prod
  7173     0FA6                     l3494:
  7174     0FA6  3001               	movlw	1
  7175     0FA7  07CA               	addwf	___flmul@temp,f
  7176     0FA8  1803               	skipnc
  7177     0FA9  0ACB               	incf	___flmul@temp+1,f
  7178     0FAA  3000               	movlw	0
  7179     0FAB  07CB               	addwf	___flmul@temp+1,f
  7180     0FAC                     l3496:
  7181     0FAC  084B               	movf	___flmul@temp+1,w
  7182     0FAD  3A80               	xorlw	128
  7183     0FAE  00FF               	movwf	btemp+1
  7184     0FAF  3080               	movlw	128
  7185     0FB0  027F               	subwf	btemp+1,w
  7186     0FB1  1D03               	skipz
  7187     0FB2  2FB5               	goto	u4805
  7188     0FB3  30FF               	movlw	255
  7189     0FB4  024A               	subwf	___flmul@temp,w
  7190     0FB5                     u4805:
  7191     0FB5  1C03               	skipc
  7192     0FB6  2FB8               	goto	u4801
  7193     0FB7  2FB9               	goto	u4800
  7194     0FB8                     u4801:
  7195     0FB8  2FC4               	goto	l3500
  7196     0FB9                     u4800:
  7197     0FB9                     l3498:
  7198     0FB9  307F               	movlw	127
  7199     0FBA  1283               	bcf	3,5	;RP0=0, select bank0
  7200     0FBB  1303               	bcf	3,6	;RP1=0, select bank0
  7201     0FBC  00C9               	movwf	___flmul@prod+3
  7202     0FBD  3080               	movlw	128
  7203     0FBE  00C8               	movwf	___flmul@prod+2
  7204     0FBF  3000               	movlw	0
  7205     0FC0  00C7               	movwf	___flmul@prod+1
  7206     0FC1  3000               	movlw	0
  7207     0FC2  00C6               	movwf	___flmul@prod
  7208     0FC3  2FF5               	goto	l853
  7209     0FC4                     l3500:
  7210     0FC4  1283               	bcf	3,5	;RP0=0, select bank0
  7211     0FC5  1303               	bcf	3,6	;RP1=0, select bank0
  7212     0FC6  084B               	movf	___flmul@temp+1,w
  7213     0FC7  3A80               	xorlw	128
  7214     0FC8  00FF               	movwf	btemp+1
  7215     0FC9  3080               	movlw	128
  7216     0FCA  027F               	subwf	btemp+1,w
  7217     0FCB  1D03               	skipz
  7218     0FCC  2FCF               	goto	u4815
  7219     0FCD  3001               	movlw	1
  7220     0FCE  024A               	subwf	___flmul@temp,w
  7221     0FCF                     u4815:
  7222     0FCF  1803               	skipnc
  7223     0FD0  2FD2               	goto	u4811
  7224     0FD1  2FD3               	goto	u4810
  7225     0FD2                     u4811:
  7226     0FD2  2FDF               	goto	l3506
  7227     0FD3                     u4810:
  7228     0FD3                     l3502:
  7229     0FD3  3000               	movlw	0
  7230     0FD4  1283               	bcf	3,5	;RP0=0, select bank0
  7231     0FD5  1303               	bcf	3,6	;RP1=0, select bank0
  7232     0FD6  00C9               	movwf	___flmul@prod+3
  7233     0FD7  3000               	movlw	0
  7234     0FD8  00C8               	movwf	___flmul@prod+2
  7235     0FD9  3000               	movlw	0
  7236     0FDA  00C7               	movwf	___flmul@prod+1
  7237     0FDB  3000               	movlw	0
  7238     0FDC  00C6               	movwf	___flmul@prod
  7239     0FDD                     l3504:
  7240     0FDD  01BF               	clrf	___flmul@sign
  7241     0FDE  2FF5               	goto	l853
  7242     0FDF                     l3506:
  7243     0FDF  1283               	bcf	3,5	;RP0=0, select bank0
  7244     0FE0  1303               	bcf	3,6	;RP1=0, select bank0
  7245     0FE1  084A               	movf	___flmul@temp,w
  7246     0FE2  00C5               	movwf	___flmul@bexp
  7247     0FE3  30FF               	movlw	255
  7248     0FE4  05C6               	andwf	___flmul@prod,f
  7249     0FE5  30FF               	movlw	255
  7250     0FE6  05C7               	andwf	___flmul@prod+1,f
  7251     0FE7  307F               	movlw	127
  7252     0FE8  05C8               	andwf	___flmul@prod+2,f
  7253     0FE9  3000               	movlw	0
  7254     0FEA  05C9               	andwf	___flmul@prod+3,f
  7255     0FEB                     l3508:
  7256     0FEB  1C45               	btfss	___flmul@bexp,0
  7257     0FEC  2FEE               	goto	u4821
  7258     0FED  2FEF               	goto	u4820
  7259     0FEE                     u4821:
  7260     0FEE  2FF0               	goto	l3512
  7261     0FEF                     u4820:
  7262     0FEF                     l3510:
  7263     0FEF  17C8               	bsf	___flmul@prod+2,7
  7264     0FF0                     l3512:
  7265     0FF0  0845               	movf	___flmul@bexp,w
  7266     0FF1  00BA               	movwf	??___flmul
  7267     0FF2  1003               	clrc
  7268     0FF3  0C3A               	rrf	??___flmul,w
  7269     0FF4  00C9               	movwf	___flmul@prod+3
  7270     0FF5                     l853:
  7271     0FF5  083F               	movf	___flmul@sign,w
  7272     0FF6  04C9               	iorwf	___flmul@prod+3,f
  7273     0FF7                     l3514:
  7274     0FF7  0849               	movf	___flmul@prod+3,w
  7275     0FF8  00B5               	movwf	?___flmul+3
  7276     0FF9  0848               	movf	___flmul@prod+2,w
  7277     0FFA  00B4               	movwf	?___flmul+2
  7278     0FFB  0847               	movf	___flmul@prod+1,w
  7279     0FFC  00B3               	movwf	?___flmul+1
  7280     0FFD  0846               	movf	___flmul@prod,w
  7281     0FFE  00B2               	movwf	?___flmul
  7282     0FFF                     l841:
  7283     0FFF  0008               	return
  7284     1000                     __end_of___flmul:
  7285                           
  7286                           	psect	text13
  7287     1405                     __ptext13:	
  7288 ;; *************** function __Umul8_16 *****************
  7289 ;; Defined at:
  7290 ;;		line 4 in file "C:\Program Files\Microchip\xc8\v3.00\pic\sources\c99\common\Umul8_16.c"
  7291 ;; Parameters:    Size  Location     Type
  7292 ;;  multiplier      1    wreg     unsigned char 
  7293 ;;  multiplicand    1    2[COMMON] unsigned char 
  7294 ;; Auto vars:     Size  Location     Type
  7295 ;;  multiplier      1    4[BANK0 ] unsigned char 
  7296 ;;  word_mpld       2    2[BANK0 ] unsigned short 
  7297 ;;  product         2    0[BANK0 ] unsigned short 
  7298 ;; Return value:  Size  Location     Type
  7299 ;;                  2    2[COMMON] unsigned int 
  7300 ;; Registers used:
  7301 ;;		wreg, status,2, status,0
  7302 ;; Tracked objects:
  7303 ;;		On entry : 0/0
  7304 ;;		On exit  : 0/0
  7305 ;;		Unchanged: 0/0
  7306 ;; Data sizes:     COMMON   BANK0   BANK1   BANK3   BANK2
  7307 ;;      Params:         2       0       0       0       0
  7308 ;;      Locals:         0       5       0       0       0
  7309 ;;      Temps:          2       0       0       0       0
  7310 ;;      Totals:         4       5       0       0       0
  7311 ;;Total ram usage:        9 bytes
  7312 ;; Hardware stack levels used: 1
  7313 ;; Hardware stack levels required when called: 1
  7314 ;; This function calls:
  7315 ;;		Nothing
  7316 ;; This function is called by:
  7317 ;;		___flmul
  7318 ;; This function uses a non-reentrant model
  7319 ;;
  7320                           
  7321     1405                     __Umul8_16:	
  7322                           ;psect for function __Umul8_16
  7323                           
  7324                           
  7325                           ;incstack = 0
  7326                           ; Regs used in __Umul8_16: [wreg+status,2+status,0]
  7327                           ;__Umul8_16@multiplier stored from wreg
  7328     1405  1283               	bcf	3,5	;RP0=0, select bank0
  7329     1406  1303               	bcf	3,6	;RP1=0, select bank0
  7330     1407  00A4               	movwf	__Umul8_16@multiplier
  7331     1408                     l3170:
  7332     1408  01A0               	clrf	__Umul8_16@product
  7333     1409  01A1               	clrf	__Umul8_16@product+1
  7334     140A                     l3172:
  7335     140A  0872               	movf	__Umul8_16@multiplicand,w
  7336     140B  00F4               	movwf	??__Umul8_16
  7337     140C  01F5               	clrf	??__Umul8_16+1
  7338     140D  0874               	movf	??__Umul8_16,w
  7339     140E  00A2               	movwf	__Umul8_16@word_mpld
  7340     140F  0875               	movf	??__Umul8_16+1,w
  7341     1410  00A3               	movwf	__Umul8_16@word_mpld+1
  7342     1411                     l3174:
  7343     1411  1C24               	btfss	__Umul8_16@multiplier,0
  7344     1412  2C14               	goto	u4011
  7345     1413  2C15               	goto	u4010
  7346     1414                     u4011:
  7347     1414  2C1B               	goto	l860
  7348     1415                     u4010:
  7349     1415                     l3176:
  7350     1415  0822               	movf	__Umul8_16@word_mpld,w
  7351     1416  07A0               	addwf	__Umul8_16@product,f
  7352     1417  1803               	skipnc
  7353     1418  0AA1               	incf	__Umul8_16@product+1,f
  7354     1419  0823               	movf	__Umul8_16@word_mpld+1,w
  7355     141A  07A1               	addwf	__Umul8_16@product+1,f
  7356     141B                     l860:
  7357     141B  3001               	movlw	1
  7358     141C                     u4025:
  7359     141C  1003               	clrc
  7360     141D  0DA2               	rlf	__Umul8_16@word_mpld,f
  7361     141E  0DA3               	rlf	__Umul8_16@word_mpld+1,f
  7362     141F  3EFF               	addlw	-1
  7363     1420  1D03               	skipz
  7364     1421  2C1C               	goto	u4025
  7365     1422  1003               	clrc
  7366     1423  0CA4               	rrf	__Umul8_16@multiplier,f
  7367     1424                     l3178:
  7368     1424  0824               	movf	__Umul8_16@multiplier,w
  7369     1425  1D03               	btfss	3,2
  7370     1426  2C28               	goto	u4031
  7371     1427  2C29               	goto	u4030
  7372     1428                     u4031:
  7373     1428  2C11               	goto	l3174
  7374     1429                     u4030:
  7375     1429                     l3180:
  7376     1429  0821               	movf	__Umul8_16@product+1,w
  7377     142A  00F3               	movwf	?__Umul8_16+1
  7378     142B  0820               	movf	__Umul8_16@product,w
  7379     142C  00F2               	movwf	?__Umul8_16
  7380     142D                     l862:
  7381     142D  0008               	return
  7382     142E                     __end_of__Umul8_16:
  7383                           
  7384                           	psect	text14
  7385     175C                     __ptext14:	
  7386 ;; *************** function ___flge *****************
  7387 ;; Defined at:
  7388 ;;		line 4 in file "C:\Program Files\Microchip\xc8\v3.00\pic\sources\c99\common\flge.c"
  7389 ;; Parameters:    Size  Location     Type
  7390 ;;  ff1             4   52[BANK0 ] unsigned int 
  7391 ;;  ff2             4   56[BANK0 ] unsigned int 
  7392 ;; Auto vars:     Size  Location     Type
  7393 ;;		None
  7394 ;; Return value:  Size  Location     Type
  7395 ;;		None               void
  7396 ;; Registers used:
  7397 ;;		wreg, status,2, status,0
  7398 ;; Tracked objects:
  7399 ;;		On entry : 0/0
  7400 ;;		On exit  : 0/0
  7401 ;;		Unchanged: 0/0
  7402 ;; Data sizes:     COMMON   BANK0   BANK1   BANK3   BANK2
  7403 ;;      Params:         0       8       0       0       0
  7404 ;;      Locals:         0       0       0       0       0
  7405 ;;      Temps:          0       4       0       0       0
  7406 ;;      Totals:         0      12       0       0       0
  7407 ;;Total ram usage:       12 bytes
  7408 ;; Hardware stack levels used: 1
  7409 ;; Hardware stack levels required when called: 1
  7410 ;; This function calls:
  7411 ;;		Nothing
  7412 ;; This function is called by:
  7413 ;;		_run_program
  7414 ;; This function uses a non-reentrant model
  7415 ;;
  7416                           
  7417     175C                     ___flge:	
  7418                           ;psect for function ___flge
  7419                           
  7420     175C                     l3314:	
  7421                           ;incstack = 0
  7422                           ; Regs used in ___flge: [wreg+status,2+status,0]
  7423                           
  7424     175C  3000               	movlw	0
  7425     175D  1283               	bcf	3,5	;RP0=0, select bank0
  7426     175E  1303               	bcf	3,6	;RP1=0, select bank0
  7427     175F  0554               	andwf	___flge@ff1,w
  7428     1760  00DC               	movwf	??___flge
  7429     1761  3000               	movlw	0
  7430     1762  0555               	andwf	___flge@ff1+1,w
  7431     1763  00DD               	movwf	??___flge+1
  7432     1764  3080               	movlw	128
  7433     1765  0556               	andwf	___flge@ff1+2,w
  7434     1766  00DE               	movwf	??___flge+2
  7435     1767  307F               	movlw	127
  7436     1768  0557               	andwf	___flge@ff1+3,w
  7437     1769  00DF               	movwf	??___flge+3
  7438     176A  085F               	movf	??___flge+3,w
  7439     176B  045E               	iorwf	??___flge+2,w
  7440     176C  045D               	iorwf	??___flge+1,w
  7441     176D  045C               	iorwf	??___flge,w
  7442     176E  1D03               	skipz
  7443     176F  2F71               	goto	u4291
  7444     1770  2F72               	goto	u4290
  7445     1771                     u4291:
  7446     1771  2F7A               	goto	l622
  7447     1772                     u4290:
  7448     1772                     l3316:
  7449     1772  3000               	movlw	0
  7450     1773  00D7               	movwf	___flge@ff1+3
  7451     1774  3000               	movlw	0
  7452     1775  00D6               	movwf	___flge@ff1+2
  7453     1776  3000               	movlw	0
  7454     1777  00D5               	movwf	___flge@ff1+1
  7455     1778  3000               	movlw	0
  7456     1779  00D4               	movwf	___flge@ff1
  7457     177A                     l622:
  7458     177A  3000               	movlw	0
  7459     177B  0558               	andwf	___flge@ff2,w
  7460     177C  00DC               	movwf	??___flge
  7461     177D  3000               	movlw	0
  7462     177E  0559               	andwf	___flge@ff2+1,w
  7463     177F  00DD               	movwf	??___flge+1
  7464     1780  3080               	movlw	128
  7465     1781  055A               	andwf	___flge@ff2+2,w
  7466     1782  00DE               	movwf	??___flge+2
  7467     1783  307F               	movlw	127
  7468     1784  055B               	andwf	___flge@ff2+3,w
  7469     1785  00DF               	movwf	??___flge+3
  7470     1786  085F               	movf	??___flge+3,w
  7471     1787  045E               	iorwf	??___flge+2,w
  7472     1788  045D               	iorwf	??___flge+1,w
  7473     1789  045C               	iorwf	??___flge,w
  7474     178A  1D03               	skipz
  7475     178B  2F8D               	goto	u4301
  7476     178C  2F8E               	goto	u4300
  7477     178D                     u4301:
  7478     178D  2F96               	goto	l3320
  7479     178E                     u4300:
  7480     178E                     l3318:
  7481     178E  3000               	movlw	0
  7482     178F  00DB               	movwf	___flge@ff2+3
  7483     1790  3000               	movlw	0
  7484     1791  00DA               	movwf	___flge@ff2+2
  7485     1792  3000               	movlw	0
  7486     1793  00D9               	movwf	___flge@ff2+1
  7487     1794  3000               	movlw	0
  7488     1795  00D8               	movwf	___flge@ff2
  7489     1796                     l3320:
  7490     1796  1FD7               	btfss	___flge@ff1+3,7
  7491     1797  2F99               	goto	u4311
  7492     1798  2F9A               	goto	u4310
  7493     1799                     u4311:
  7494     1799  2FBE               	goto	l3324
  7495     179A                     u4310:
  7496     179A                     l3322:
  7497     179A  3000               	movlw	0
  7498     179B  00DC               	movwf	??___flge
  7499     179C  3000               	movlw	0
  7500     179D  00DD               	movwf	??___flge+1
  7501     179E  3000               	movlw	0
  7502     179F  00DE               	movwf	??___flge+2
  7503     17A0  3080               	movlw	128
  7504     17A1  00DF               	movwf	??___flge+3
  7505     17A2  0854               	movf	___flge@ff1,w
  7506     17A3  02DC               	subwf	??___flge,f
  7507     17A4  0855               	movf	___flge@ff1+1,w
  7508     17A5  1C03               	skipc
  7509     17A6  0F55               	incfsz	___flge@ff1+1,w
  7510     17A7  2FA9               	goto	u4321
  7511     17A8  2FAA               	goto	u4322
  7512     17A9                     u4321:
  7513     17A9  02DD               	subwf	??___flge+1,f
  7514     17AA                     u4322:
  7515     17AA  0856               	movf	___flge@ff1+2,w
  7516     17AB  1C03               	skipc
  7517     17AC  0F56               	incfsz	___flge@ff1+2,w
  7518     17AD  2FAF               	goto	u4323
  7519     17AE  2FB0               	goto	u4324
  7520     17AF                     u4323:
  7521     17AF  02DE               	subwf	??___flge+2,f
  7522     17B0                     u4324:
  7523     17B0  0857               	movf	___flge@ff1+3,w
  7524     17B1  1C03               	skipc
  7525     17B2  0F57               	incfsz	___flge@ff1+3,w
  7526     17B3  2FB5               	goto	u4325
  7527     17B4  2FB6               	goto	u4326
  7528     17B5                     u4325:
  7529     17B5  02DF               	subwf	??___flge+3,f
  7530     17B6                     u4326:
  7531     17B6  085F               	movf	??___flge+3,w
  7532     17B7  00D7               	movwf	___flge@ff1+3
  7533     17B8  085E               	movf	??___flge+2,w
  7534     17B9  00D6               	movwf	___flge@ff1+2
  7535     17BA  085D               	movf	??___flge+1,w
  7536     17BB  00D5               	movwf	___flge@ff1+1
  7537     17BC  085C               	movf	??___flge,w
  7538     17BD  00D4               	movwf	___flge@ff1
  7539     17BE                     l3324:
  7540     17BE  1FDB               	btfss	___flge@ff2+3,7
  7541     17BF  2FC1               	goto	u4331
  7542     17C0  2FC2               	goto	u4330
  7543     17C1                     u4331:
  7544     17C1  2FE6               	goto	l625
  7545     17C2                     u4330:
  7546     17C2                     l3326:
  7547     17C2  3000               	movlw	0
  7548     17C3  00DC               	movwf	??___flge
  7549     17C4  3000               	movlw	0
  7550     17C5  00DD               	movwf	??___flge+1
  7551     17C6  3000               	movlw	0
  7552     17C7  00DE               	movwf	??___flge+2
  7553     17C8  3080               	movlw	128
  7554     17C9  00DF               	movwf	??___flge+3
  7555     17CA  0858               	movf	___flge@ff2,w
  7556     17CB  02DC               	subwf	??___flge,f
  7557     17CC  0859               	movf	___flge@ff2+1,w
  7558     17CD  1C03               	skipc
  7559     17CE  0F59               	incfsz	___flge@ff2+1,w
  7560     17CF  2FD1               	goto	u4341
  7561     17D0  2FD2               	goto	u4342
  7562     17D1                     u4341:
  7563     17D1  02DD               	subwf	??___flge+1,f
  7564     17D2                     u4342:
  7565     17D2  085A               	movf	___flge@ff2+2,w
  7566     17D3  1C03               	skipc
  7567     17D4  0F5A               	incfsz	___flge@ff2+2,w
  7568     17D5  2FD7               	goto	u4343
  7569     17D6  2FD8               	goto	u4344
  7570     17D7                     u4343:
  7571     17D7  02DE               	subwf	??___flge+2,f
  7572     17D8                     u4344:
  7573     17D8  085B               	movf	___flge@ff2+3,w
  7574     17D9  1C03               	skipc
  7575     17DA  0F5B               	incfsz	___flge@ff2+3,w
  7576     17DB  2FDD               	goto	u4345
  7577     17DC  2FDE               	goto	u4346
  7578     17DD                     u4345:
  7579     17DD  02DF               	subwf	??___flge+3,f
  7580     17DE                     u4346:
  7581     17DE  085F               	movf	??___flge+3,w
  7582     17DF  00DB               	movwf	___flge@ff2+3
  7583     17E0  085E               	movf	??___flge+2,w
  7584     17E1  00DA               	movwf	___flge@ff2+2
  7585     17E2  085D               	movf	??___flge+1,w
  7586     17E3  00D9               	movwf	___flge@ff2+1
  7587     17E4  085C               	movf	??___flge,w
  7588     17E5  00D8               	movwf	___flge@ff2
  7589     17E6                     l625:
  7590     17E6  3080               	movlw	128
  7591     17E7  06D7               	xorwf	___flge@ff1+3,f
  7592     17E8  3080               	movlw	128
  7593     17E9  06DB               	xorwf	___flge@ff2+3,f
  7594     17EA  085B               	movf	___flge@ff2+3,w
  7595     17EB  0257               	subwf	___flge@ff1+3,w
  7596     17EC  1D03               	skipz
  7597     17ED  2FF8               	goto	u4355
  7598     17EE  085A               	movf	___flge@ff2+2,w
  7599     17EF  0256               	subwf	___flge@ff1+2,w
  7600     17F0  1D03               	skipz
  7601     17F1  2FF8               	goto	u4355
  7602     17F2  0859               	movf	___flge@ff2+1,w
  7603     17F3  0255               	subwf	___flge@ff1+1,w
  7604     17F4  1D03               	skipz
  7605     17F5  2FF8               	goto	u4355
  7606     17F6  0858               	movf	___flge@ff2,w
  7607     17F7  0254               	subwf	___flge@ff1,w
  7608     17F8                     u4355:
  7609     17F8  1803               	skipnc
  7610     17F9  2FFB               	goto	u4351
  7611     17FA  2FFC               	goto	u4350
  7612     17FB                     u4351:
  7613     17FB  2FFE               	goto	l3330
  7614     17FC                     u4350:
  7615     17FC                     l3328:
  7616     17FC  1003               	clrc
  7617     17FD  2FFF               	goto	l630
  7618     17FE                     l3330:
  7619     17FE  1403               	setc
  7620     17FF                     l630:
  7621     17FF  0008               	return
  7622     1800                     __end_of___flge:
  7623                           
  7624                           	psect	text15
  7625     1526                     __ptext15:	
  7626 ;; *************** function ___awmod *****************
  7627 ;; Defined at:
  7628 ;;		line 5 in file "C:\Program Files\Microchip\xc8\v3.00\pic\sources\c99\common\awmod.c"
  7629 ;; Parameters:    Size  Location     Type
  7630 ;;  divisor         2    2[COMMON] int 
  7631 ;;  dividend        2    4[COMMON] int 
  7632 ;; Auto vars:     Size  Location     Type
  7633 ;;  sign            1    7[COMMON] unsigned char 
  7634 ;;  counter         1    6[COMMON] unsigned char 
  7635 ;; Return value:  Size  Location     Type
  7636 ;;                  2    2[COMMON] int 
  7637 ;; Registers used:
  7638 ;;		wreg, status,2, status,0
  7639 ;; Tracked objects:
  7640 ;;		On entry : 0/0
  7641 ;;		On exit  : 0/0
  7642 ;;		Unchanged: 0/0
  7643 ;; Data sizes:     COMMON   BANK0   BANK1   BANK3   BANK2
  7644 ;;      Params:         4       0       0       0       0
  7645 ;;      Locals:         2       0       0       0       0
  7646 ;;      Temps:          0       0       0       0       0
  7647 ;;      Totals:         6       0       0       0       0
  7648 ;;Total ram usage:        6 bytes
  7649 ;; Hardware stack levels used: 1
  7650 ;; Hardware stack levels required when called: 1
  7651 ;; This function calls:
  7652 ;;		Nothing
  7653 ;; This function is called by:
  7654 ;;		_water_level_screen
  7655 ;;		_run_program
  7656 ;; This function uses a non-reentrant model
  7657 ;;
  7658                           
  7659     1526                     ___awmod:	
  7660                           ;psect for function ___awmod
  7661                           
  7662     1526                     l3276:	
  7663                           ;incstack = 0
  7664                           ; Regs used in ___awmod: [wreg+status,2+status,0]
  7665                           
  7666     1526  01F7               	clrf	___awmod@sign
  7667     1527                     l3278:
  7668     1527  1FF5               	btfss	___awmod@dividend+1,7
  7669     1528  2D2A               	goto	u4201
  7670     1529  2D2B               	goto	u4200
  7671     152A                     u4201:
  7672     152A  2D32               	goto	l3284
  7673     152B                     u4200:
  7674     152B                     l3280:
  7675     152B  09F4               	comf	___awmod@dividend,f
  7676     152C  09F5               	comf	___awmod@dividend+1,f
  7677     152D  0AF4               	incf	___awmod@dividend,f
  7678     152E  1903               	skipnz
  7679     152F  0AF5               	incf	___awmod@dividend+1,f
  7680     1530                     l3282:
  7681     1530  3001               	movlw	1
  7682     1531  00F7               	movwf	___awmod@sign
  7683     1532                     l3284:
  7684     1532  1FF3               	btfss	___awmod@divisor+1,7
  7685     1533  2D35               	goto	u4211
  7686     1534  2D36               	goto	u4210
  7687     1535                     u4211:
  7688     1535  2D3B               	goto	l3288
  7689     1536                     u4210:
  7690     1536                     l3286:
  7691     1536  09F2               	comf	___awmod@divisor,f
  7692     1537  09F3               	comf	___awmod@divisor+1,f
  7693     1538  0AF2               	incf	___awmod@divisor,f
  7694     1539  1903               	skipnz
  7695     153A  0AF3               	incf	___awmod@divisor+1,f
  7696     153B                     l3288:
  7697     153B  0872               	movf	___awmod@divisor,w
  7698     153C  0473               	iorwf	___awmod@divisor+1,w
  7699     153D  1903               	btfsc	3,2
  7700     153E  2D40               	goto	u4221
  7701     153F  2D41               	goto	u4220
  7702     1540                     u4221:
  7703     1540  2D6E               	goto	l3306
  7704     1541                     u4220:
  7705     1541                     l3290:
  7706     1541  3001               	movlw	1
  7707     1542  00F6               	movwf	___awmod@counter
  7708     1543  2D4D               	goto	l3296
  7709     1544                     l3292:
  7710     1544  3001               	movlw	1
  7711     1545                     u4235:
  7712     1545  1003               	clrc
  7713     1546  0DF2               	rlf	___awmod@divisor,f
  7714     1547  0DF3               	rlf	___awmod@divisor+1,f
  7715     1548  3EFF               	addlw	-1
  7716     1549  1D03               	skipz
  7717     154A  2D45               	goto	u4235
  7718     154B                     l3294:
  7719     154B  3001               	movlw	1
  7720     154C  07F6               	addwf	___awmod@counter,f
  7721     154D                     l3296:
  7722     154D  1FF3               	btfss	___awmod@divisor+1,7
  7723     154E  2D50               	goto	u4241
  7724     154F  2D51               	goto	u4240
  7725     1550                     u4241:
  7726     1550  2D44               	goto	l3292
  7727     1551                     u4240:
  7728     1551                     l3298:
  7729     1551  0873               	movf	___awmod@divisor+1,w
  7730     1552  0275               	subwf	___awmod@dividend+1,w
  7731     1553  1D03               	skipz
  7732     1554  2D57               	goto	u4255
  7733     1555  0872               	movf	___awmod@divisor,w
  7734     1556  0274               	subwf	___awmod@dividend,w
  7735     1557                     u4255:
  7736     1557  1C03               	skipc
  7737     1558  2D5A               	goto	u4251
  7738     1559  2D5B               	goto	u4250
  7739     155A                     u4251:
  7740     155A  2D61               	goto	l3302
  7741     155B                     u4250:
  7742     155B                     l3300:
  7743     155B  0872               	movf	___awmod@divisor,w
  7744     155C  02F4               	subwf	___awmod@dividend,f
  7745     155D  0873               	movf	___awmod@divisor+1,w
  7746     155E  1C03               	skipc
  7747     155F  03F5               	decf	___awmod@dividend+1,f
  7748     1560  02F5               	subwf	___awmod@dividend+1,f
  7749     1561                     l3302:
  7750     1561  3001               	movlw	1
  7751     1562                     u4265:
  7752     1562  1003               	clrc
  7753     1563  0CF3               	rrf	___awmod@divisor+1,f
  7754     1564  0CF2               	rrf	___awmod@divisor,f
  7755     1565  3EFF               	addlw	-1
  7756     1566  1D03               	skipz
  7757     1567  2D62               	goto	u4265
  7758     1568                     l3304:
  7759     1568  3001               	movlw	1
  7760     1569  02F6               	subwf	___awmod@counter,f
  7761     156A  1D03               	btfss	3,2
  7762     156B  2D6D               	goto	u4271
  7763     156C  2D6E               	goto	u4270
  7764     156D                     u4271:
  7765     156D  2D51               	goto	l3298
  7766     156E                     u4270:
  7767     156E                     l3306:
  7768     156E  0877               	movf	___awmod@sign,w
  7769     156F  1903               	btfsc	3,2
  7770     1570  2D72               	goto	u4281
  7771     1571  2D73               	goto	u4280
  7772     1572                     u4281:
  7773     1572  2D78               	goto	l3310
  7774     1573                     u4280:
  7775     1573                     l3308:
  7776     1573  09F4               	comf	___awmod@dividend,f
  7777     1574  09F5               	comf	___awmod@dividend+1,f
  7778     1575  0AF4               	incf	___awmod@dividend,f
  7779     1576  1903               	skipnz
  7780     1577  0AF5               	incf	___awmod@dividend+1,f
  7781     1578                     l3310:
  7782     1578  0875               	movf	___awmod@dividend+1,w
  7783     1579  00F3               	movwf	?___awmod+1
  7784     157A  0874               	movf	___awmod@dividend,w
  7785     157B  00F2               	movwf	?___awmod
  7786     157C                     l610:
  7787     157C  0008               	return
  7788     157D                     __end_of___awmod:
  7789                           
  7790                           	psect	text16
  7791     157D                     __ptext16:	
  7792 ;; *************** function ___awdiv *****************
  7793 ;; Defined at:
  7794 ;;		line 5 in file "C:\Program Files\Microchip\xc8\v3.00\pic\sources\c99\common\awdiv.c"
  7795 ;; Parameters:    Size  Location     Type
  7796 ;;  divisor         2    2[COMMON] int 
  7797 ;;  dividend        2    4[COMMON] int 
  7798 ;; Auto vars:     Size  Location     Type
  7799 ;;  quotient        2    2[BANK0 ] int 
  7800 ;;  sign            1    1[BANK0 ] unsigned char 
  7801 ;;  counter         1    0[BANK0 ] unsigned char 
  7802 ;; Return value:  Size  Location     Type
  7803 ;;                  2    2[COMMON] int 
  7804 ;; Registers used:
  7805 ;;		wreg, status,2, status,0
  7806 ;; Tracked objects:
  7807 ;;		On entry : 0/0
  7808 ;;		On exit  : 0/0
  7809 ;;		Unchanged: 0/0
  7810 ;; Data sizes:     COMMON   BANK0   BANK1   BANK3   BANK2
  7811 ;;      Params:         4       0       0       0       0
  7812 ;;      Locals:         0       4       0       0       0
  7813 ;;      Temps:          0       0       0       0       0
  7814 ;;      Totals:         4       4       0       0       0
  7815 ;;Total ram usage:        8 bytes
  7816 ;; Hardware stack levels used: 1
  7817 ;; Hardware stack levels required when called: 1
  7818 ;; This function calls:
  7819 ;;		Nothing
  7820 ;; This function is called by:
  7821 ;;		_run_program
  7822 ;; This function uses a non-reentrant model
  7823 ;;
  7824                           
  7825     157D                     ___awdiv:	
  7826                           ;psect for function ___awdiv
  7827                           
  7828     157D                     l4026:	
  7829                           ;incstack = 0
  7830                           ; Regs used in ___awdiv: [wreg+status,2+status,0]
  7831                           
  7832     157D  1283               	bcf	3,5	;RP0=0, select bank0
  7833     157E  1303               	bcf	3,6	;RP1=0, select bank0
  7834     157F  01A1               	clrf	___awdiv@sign
  7835     1580                     l4028:
  7836     1580  1FF3               	btfss	___awdiv@divisor+1,7
  7837     1581  2D83               	goto	u5391
  7838     1582  2D84               	goto	u5390
  7839     1583                     u5391:
  7840     1583  2D8B               	goto	l4034
  7841     1584                     u5390:
  7842     1584                     l4030:
  7843     1584  09F2               	comf	___awdiv@divisor,f
  7844     1585  09F3               	comf	___awdiv@divisor+1,f
  7845     1586  0AF2               	incf	___awdiv@divisor,f
  7846     1587  1903               	skipnz
  7847     1588  0AF3               	incf	___awdiv@divisor+1,f
  7848     1589                     l4032:
  7849     1589  3001               	movlw	1
  7850     158A  00A1               	movwf	___awdiv@sign
  7851     158B                     l4034:
  7852     158B  1FF5               	btfss	___awdiv@dividend+1,7
  7853     158C  2D8E               	goto	u5401
  7854     158D  2D8F               	goto	u5400
  7855     158E                     u5401:
  7856     158E  2D96               	goto	l4040
  7857     158F                     u5400:
  7858     158F                     l4036:
  7859     158F  09F4               	comf	___awdiv@dividend,f
  7860     1590  09F5               	comf	___awdiv@dividend+1,f
  7861     1591  0AF4               	incf	___awdiv@dividend,f
  7862     1592  1903               	skipnz
  7863     1593  0AF5               	incf	___awdiv@dividend+1,f
  7864     1594                     l4038:
  7865     1594  3001               	movlw	1
  7866     1595  06A1               	xorwf	___awdiv@sign,f
  7867     1596                     l4040:
  7868     1596  01A2               	clrf	___awdiv@quotient
  7869     1597  01A3               	clrf	___awdiv@quotient+1
  7870     1598                     l4042:
  7871     1598  0872               	movf	___awdiv@divisor,w
  7872     1599  0473               	iorwf	___awdiv@divisor+1,w
  7873     159A  1903               	btfsc	3,2
  7874     159B  2D9D               	goto	u5411
  7875     159C  2D9E               	goto	u5410
  7876     159D                     u5411:
  7877     159D  2DD3               	goto	l4062
  7878     159E                     u5410:
  7879     159E                     l4044:
  7880     159E  3001               	movlw	1
  7881     159F  00A0               	movwf	___awdiv@counter
  7882     15A0  2DAA               	goto	l4050
  7883     15A1                     l4046:
  7884     15A1  3001               	movlw	1
  7885     15A2                     u5425:
  7886     15A2  1003               	clrc
  7887     15A3  0DF2               	rlf	___awdiv@divisor,f
  7888     15A4  0DF3               	rlf	___awdiv@divisor+1,f
  7889     15A5  3EFF               	addlw	-1
  7890     15A6  1D03               	skipz
  7891     15A7  2DA2               	goto	u5425
  7892     15A8                     l4048:
  7893     15A8  3001               	movlw	1
  7894     15A9  07A0               	addwf	___awdiv@counter,f
  7895     15AA                     l4050:
  7896     15AA  1FF3               	btfss	___awdiv@divisor+1,7
  7897     15AB  2DAD               	goto	u5431
  7898     15AC  2DAE               	goto	u5430
  7899     15AD                     u5431:
  7900     15AD  2DA1               	goto	l4046
  7901     15AE                     u5430:
  7902     15AE                     l4052:
  7903     15AE  3001               	movlw	1
  7904     15AF                     u5445:
  7905     15AF  1003               	clrc
  7906     15B0  0DA2               	rlf	___awdiv@quotient,f
  7907     15B1  0DA3               	rlf	___awdiv@quotient+1,f
  7908     15B2  3EFF               	addlw	-1
  7909     15B3  1D03               	skipz
  7910     15B4  2DAF               	goto	u5445
  7911     15B5  0873               	movf	___awdiv@divisor+1,w
  7912     15B6  0275               	subwf	___awdiv@dividend+1,w
  7913     15B7  1D03               	skipz
  7914     15B8  2DBB               	goto	u5455
  7915     15B9  0872               	movf	___awdiv@divisor,w
  7916     15BA  0274               	subwf	___awdiv@dividend,w
  7917     15BB                     u5455:
  7918     15BB  1C03               	skipc
  7919     15BC  2DBE               	goto	u5451
  7920     15BD  2DBF               	goto	u5450
  7921     15BE                     u5451:
  7922     15BE  2DC6               	goto	l4058
  7923     15BF                     u5450:
  7924     15BF                     l4054:
  7925     15BF  0872               	movf	___awdiv@divisor,w
  7926     15C0  02F4               	subwf	___awdiv@dividend,f
  7927     15C1  0873               	movf	___awdiv@divisor+1,w
  7928     15C2  1C03               	skipc
  7929     15C3  03F5               	decf	___awdiv@dividend+1,f
  7930     15C4  02F5               	subwf	___awdiv@dividend+1,f
  7931     15C5                     l4056:
  7932     15C5  1422               	bsf	___awdiv@quotient,0
  7933     15C6                     l4058:
  7934     15C6  3001               	movlw	1
  7935     15C7                     u5465:
  7936     15C7  1003               	clrc
  7937     15C8  0CF3               	rrf	___awdiv@divisor+1,f
  7938     15C9  0CF2               	rrf	___awdiv@divisor,f
  7939     15CA  3EFF               	addlw	-1
  7940     15CB  1D03               	skipz
  7941     15CC  2DC7               	goto	u5465
  7942     15CD                     l4060:
  7943     15CD  3001               	movlw	1
  7944     15CE  02A0               	subwf	___awdiv@counter,f
  7945     15CF  1D03               	btfss	3,2
  7946     15D0  2DD2               	goto	u5471
  7947     15D1  2DD3               	goto	u5470
  7948     15D2                     u5471:
  7949     15D2  2DAE               	goto	l4052
  7950     15D3                     u5470:
  7951     15D3                     l4062:
  7952     15D3  0821               	movf	___awdiv@sign,w
  7953     15D4  1903               	btfsc	3,2
  7954     15D5  2DD7               	goto	u5481
  7955     15D6  2DD8               	goto	u5480
  7956     15D7                     u5481:
  7957     15D7  2DDD               	goto	l4066
  7958     15D8                     u5480:
  7959     15D8                     l4064:
  7960     15D8  09A2               	comf	___awdiv@quotient,f
  7961     15D9  09A3               	comf	___awdiv@quotient+1,f
  7962     15DA  0AA2               	incf	___awdiv@quotient,f
  7963     15DB  1903               	skipnz
  7964     15DC  0AA3               	incf	___awdiv@quotient+1,f
  7965     15DD                     l4066:
  7966     15DD  0823               	movf	___awdiv@quotient+1,w
  7967     15DE  00F3               	movwf	?___awdiv+1
  7968     15DF  0822               	movf	___awdiv@quotient,w
  7969     15E0  00F2               	movwf	?___awdiv
  7970     15E1                     l597:
  7971     15E1  0008               	return
  7972     15E2                     __end_of___awdiv:
  7973                           
  7974                           	psect	text17
  7975     147B                     __ptext17:	
  7976 ;; *************** function _read_digital_keypad *****************
  7977 ;; Defined at:
  7978 ;;		line 10 in file "digital_keypad.c"
  7979 ;; Parameters:    Size  Location     Type
  7980 ;;  mode            1    wreg     unsigned char 
  7981 ;; Auto vars:     Size  Location     Type
  7982 ;;  mode            1    0[COMMON] unsigned char 
  7983 ;;  key             1    2[COMMON] unsigned char 
  7984 ;; Return value:  Size  Location     Type
  7985 ;;                  1    wreg      unsigned char 
  7986 ;; Registers used:
  7987 ;;		wreg, status,2, status,0
  7988 ;; Tracked objects:
  7989 ;;		On entry : 0/0
  7990 ;;		On exit  : 0/0
  7991 ;;		Unchanged: 0/0
  7992 ;; Data sizes:     COMMON   BANK0   BANK1   BANK3   BANK2
  7993 ;;      Params:         0       0       0       0       0
  7994 ;;      Locals:         1       0       0       0       0
  7995 ;;      Temps:          0       0       0       0       0
  7996 ;;      Totals:         1       0       0       0       0
  7997 ;;Total ram usage:        1 bytes
  7998 ;; Hardware stack levels used: 1
  7999 ;; Hardware stack levels required when called: 1
  8000 ;; This function calls:
  8001 ;;		Nothing
  8002 ;; This function is called by:
  8003 ;;		_main
  8004 ;; This function uses a non-reentrant model
  8005 ;;
  8006                           
  8007     147B                     _read_digital_keypad:	
  8008                           ;psect for function _read_digital_keypad
  8009                           
  8010     147B                     l3576:	
  8011                           ;incstack = 0
  8012                           ; Regs used in _read_digital_keypad: [wreg+status,2+status,0]
  8013                           
  8014                           
  8015                           ;digital_keypad.c: 10: unsigned char read_digital_keypad(unsigned char mode);digital_key
      +                          pad.c: 11: {;digital_keypad.c: 12:     static unsigned char once = 1;;digital_keypad.c: 
      +                          13:     static unsigned char long_press = 1;;digital_keypad.c: 14:     unsigned char key
      +                           = PORTB & 0x3F;
  8016     147B  1283               	bcf	3,5	;RP0=0, select bank0
  8017     147C  1303               	bcf	3,6	;RP1=0, select bank0
  8018     147D  0806               	movf	6,w	;volatile
  8019     147E  00F2               	movwf	read_digital_keypad@key
  8020     147F                     l3578:
  8021     147F  303F               	movlw	63
  8022     1480  05F2               	andwf	read_digital_keypad@key,f
  8023     1481                     l3580:
  8024                           
  8025                           ;digital_keypad.c: 15:     static unsigned char pre_key;;digital_keypad.c: 18:         i
      +                          f ((key != 0x3F) && once)
  8026     1481  303F               	movlw	63
  8027     1482  0672               	xorwf	read_digital_keypad@key,w
  8028     1483  1903               	btfsc	3,2
  8029     1484  2C86               	goto	u4971
  8030     1485  2C87               	goto	u4970
  8031     1486                     u4971:
  8032     1486  2C93               	goto	l3588
  8033     1487                     u4970:
  8034     1487                     l3582:
  8035     1487  087A               	movf	read_digital_keypad@once,w
  8036     1488  1903               	btfsc	3,2
  8037     1489  2C8B               	goto	u4981
  8038     148A  2C8C               	goto	u4980
  8039     148B                     u4981:
  8040     148B  2C93               	goto	l3588
  8041     148C                     u4980:
  8042     148C                     l3584:
  8043                           
  8044                           ;digital_keypad.c: 19:         {;digital_keypad.c: 20:             once = 0;
  8045     148C  01FA               	clrf	read_digital_keypad@once
  8046                           
  8047                           ;digital_keypad.c: 21:             long_press = 0;
  8048     148D  01F9               	clrf	read_digital_keypad@long_press
  8049     148E                     l3586:
  8050                           
  8051                           ;digital_keypad.c: 22:             pre_key = key;
  8052     148E  0872               	movf	read_digital_keypad@key,w
  8053     148F  1683               	bsf	3,5	;RP0=1, select bank1
  8054     1490  1303               	bcf	3,6	;RP1=0, select bank1
  8055     1491  00DA               	movwf	read_digital_keypad@pre_key^(0+128)
  8056                           
  8057                           ;digital_keypad.c: 24:         }
  8058     1492  2CCD               	goto	l3618
  8059     1493                     l3588:
  8060     1493  303F               	movlw	63
  8061     1494  0672               	xorwf	read_digital_keypad@key,w
  8062     1495  1D03               	btfss	3,2
  8063     1496  2C98               	goto	u4991
  8064     1497  2C99               	goto	u4990
  8065     1498                     u4991:
  8066     1498  2CAA               	goto	l3600
  8067     1499                     u4990:
  8068     1499                     l3590:
  8069     1499  087A               	movf	read_digital_keypad@once,w
  8070     149A  1D03               	btfss	3,2
  8071     149B  2C9D               	goto	u5001
  8072     149C  2C9E               	goto	u5000
  8073     149D                     u5001:
  8074     149D  2CAA               	goto	l3600
  8075     149E                     u5000:
  8076     149E                     l3592:
  8077                           
  8078                           ;digital_keypad.c: 26:         {;digital_keypad.c: 27:             once = 1;
  8079     149E  3001               	movlw	1
  8080     149F  00FA               	movwf	read_digital_keypad@once
  8081     14A0                     l3594:
  8082                           
  8083                           ;digital_keypad.c: 28:             if(long_press < 30)
  8084     14A0  301E               	movlw	30
  8085     14A1  0279               	subwf	read_digital_keypad@long_press,w
  8086     14A2  1803               	skipnc
  8087     14A3  2CA5               	goto	u5011
  8088     14A4  2CA6               	goto	u5010
  8089     14A5                     u5011:
  8090     14A5  2CCD               	goto	l3618
  8091     14A6                     u5010:
  8092     14A6                     l3596:
  8093                           
  8094                           ;digital_keypad.c: 29:             {;digital_keypad.c: 30:                 return pre_ke
      +                          y;
  8095     14A6  1683               	bsf	3,5	;RP0=1, select bank1
  8096     14A7  1303               	bcf	3,6	;RP1=0, select bank1
  8097     14A8  085A               	movf	read_digital_keypad@pre_key^(0+128),w
  8098     14A9  2CCE               	goto	l155
  8099     14AA                     l3600:
  8100     14AA  087A               	movf	read_digital_keypad@once,w
  8101     14AB  1D03               	btfss	3,2
  8102     14AC  2CAE               	goto	u5021
  8103     14AD  2CAF               	goto	u5020
  8104     14AE                     u5021:
  8105     14AE  2CB8               	goto	l3606
  8106     14AF                     u5020:
  8107     14AF                     l3602:
  8108     14AF  301F               	movlw	31
  8109     14B0  0279               	subwf	read_digital_keypad@long_press,w
  8110     14B1  1803               	skipnc
  8111     14B2  2CB4               	goto	u5031
  8112     14B3  2CB5               	goto	u5030
  8113     14B4                     u5031:
  8114     14B4  2CB8               	goto	l3606
  8115     14B5                     u5030:
  8116     14B5                     l3604:
  8117                           
  8118                           ;digital_keypad.c: 34:         {;digital_keypad.c: 35:             long_press++ ;
  8119     14B5  3001               	movlw	1
  8120     14B6  07F9               	addwf	read_digital_keypad@long_press,f
  8121                           
  8122                           ;digital_keypad.c: 36:         }
  8123     14B7  2CCD               	goto	l3618
  8124     14B8                     l3606:
  8125     14B8  087A               	movf	read_digital_keypad@once,w
  8126     14B9  1D03               	btfss	3,2
  8127     14BA  2CBC               	goto	u5041
  8128     14BB  2CBD               	goto	u5040
  8129     14BC                     u5041:
  8130     14BC  2CCD               	goto	l156
  8131     14BD                     u5040:
  8132     14BD                     l3608:
  8133     14BD  301F               	movlw	31
  8134     14BE  0679               	xorwf	read_digital_keypad@long_press,w
  8135     14BF  1D03               	btfss	3,2
  8136     14C0  2CC2               	goto	u5051
  8137     14C1  2CC3               	goto	u5050
  8138     14C2                     u5051:
  8139     14C2  2CCD               	goto	l156
  8140     14C3                     u5050:
  8141     14C3                     l3610:
  8142     14C3  3037               	movlw	55
  8143     14C4  0672               	xorwf	read_digital_keypad@key,w
  8144     14C5  1D03               	btfss	3,2
  8145     14C6  2CC8               	goto	u5061
  8146     14C7  2CC9               	goto	u5060
  8147     14C8                     u5061:
  8148     14C8  2CCD               	goto	l156
  8149     14C9                     u5060:
  8150     14C9                     l3612:
  8151                           
  8152                           ;digital_keypad.c: 38:         {;digital_keypad.c: 39:             long_press++ ;
  8153     14C9  3001               	movlw	1
  8154     14CA  07F9               	addwf	read_digital_keypad@long_press,f
  8155     14CB                     l3614:
  8156                           
  8157                           ;digital_keypad.c: 40:             return 0xFF;
  8158     14CB  30FF               	movlw	255
  8159     14CC  2CCE               	goto	l155
  8160     14CD                     l156:
  8161     14CD                     l3618:
  8162                           
  8163                           ;digital_keypad.c: 43:     return 0x3F;
  8164     14CD  303F               	movlw	63
  8165     14CE                     l155:
  8166     14CE  0008               	return
  8167     14CF                     __end_of_read_digital_keypad:
  8168                           
  8169                           	psect	text18
  8170     164D                     __ptext18:	
  8171 ;; *************** function _power_on_screen *****************
  8172 ;; Defined at:
  8173 ;;		line 15 in file "washing_machine_functions_def.c"
  8174 ;; Parameters:    Size  Location     Type
  8175 ;;		None
  8176 ;; Auto vars:     Size  Location     Type
  8177 ;;  i               1    9[BANK0 ] unsigned char 
  8178 ;;  i               1    8[BANK0 ] unsigned char 
  8179 ;; Return value:  Size  Location     Type
  8180 ;;                  1    wreg      void 
  8181 ;; Registers used:
  8182 ;;		wreg, fsr0l, fsr0h, status,2, status,0, btemp+1, pclath, cstack
  8183 ;; Tracked objects:
  8184 ;;		On entry : 0/0
  8185 ;;		On exit  : 0/0
  8186 ;;		Unchanged: 0/0
  8187 ;; Data sizes:     COMMON   BANK0   BANK1   BANK3   BANK2
  8188 ;;      Params:         0       0       0       0       0
  8189 ;;      Locals:         0       2       0       0       0
  8190 ;;      Temps:          0       3       0       0       0
  8191 ;;      Totals:         0       5       0       0       0
  8192 ;;Total ram usage:        5 bytes
  8193 ;; Hardware stack levels used: 1
  8194 ;; Hardware stack levels required when called: 3
  8195 ;; This function calls:
  8196 ;;		_clcd_print
  8197 ;;		_clcd_putch
  8198 ;; This function is called by:
  8199 ;;		_main
  8200 ;; This function uses a non-reentrant model
  8201 ;;
  8202                           
  8203     164D                     _power_on_screen:	
  8204                           ;psect for function _power_on_screen
  8205                           
  8206     164D                     l3622:	
  8207                           ;incstack = 0
  8208                           ; Regs used in _power_on_screen: [wreg-fsr0h+status,2+status,0+btemp+1+pclath+cstack]
  8209                           
  8210                           
  8211                           ;washing_machine_functions_def.c: 17:     for(unsigned char i=0;i<16;i++)
  8212     164D  1283               	bcf	3,5	;RP0=0, select bank0
  8213     164E  1303               	bcf	3,6	;RP1=0, select bank0
  8214     164F  01A8               	clrf	power_on_screen@i
  8215     1650                     l3628:
  8216                           
  8217                           ;washing_machine_functions_def.c: 18:     {;washing_machine_functions_def.c: 19:     clc
      +                          d_putch(0xFF,(0x80 + i));
  8218     1650  0828               	movf	power_on_screen@i,w
  8219     1651  3E80               	addlw	128
  8220     1652  00F8               	movwf	clcd_putch@addr
  8221     1653  30FF               	movlw	255
  8222     1654  160A  118A  2365  160A  118A  	fcall	_clcd_putch
  8223     1659                     l3630:
  8224                           
  8225                           ;washing_machine_functions_def.c: 20:     _delay((unsigned long)((100000)*(20000000/4000
      +                          000.0)));
  8226     1659  3003               	movlw	3
  8227     165A  1283               	bcf	3,5	;RP0=0, select bank0
  8228     165B  1303               	bcf	3,6	;RP1=0, select bank0
  8229     165C  00A7               	movwf	??_power_on_screen+2
  8230     165D  308A               	movlw	138
  8231     165E  00A6               	movwf	??_power_on_screen+1
  8232     165F  3055               	movlw	85
  8233     1660  00A5               	movwf	??_power_on_screen
  8234     1661                     u5737:
  8235     1661  0BA5               	decfsz	??_power_on_screen,f
  8236     1662  2E61               	goto	u5737
  8237     1663  0BA6               	decfsz	??_power_on_screen+1,f
  8238     1664  2E61               	goto	u5737
  8239     1665  0BA7               	decfsz	??_power_on_screen+2,f
  8240     1666  2E61               	goto	u5737
  8241     1667                     l3632:
  8242                           
  8243                           ;washing_machine_functions_def.c: 21:     }
  8244     1667  3001               	movlw	1
  8245     1668  1283               	bcf	3,5	;RP0=0, select bank0
  8246     1669  1303               	bcf	3,6	;RP1=0, select bank0
  8247     166A  07A8               	addwf	power_on_screen@i,f
  8248     166B                     l3634:
  8249     166B  3010               	movlw	16
  8250     166C  0228               	subwf	power_on_screen@i,w
  8251     166D  1C03               	skipc
  8252     166E  2E70               	goto	u5071
  8253     166F  2E71               	goto	u5070
  8254     1670                     u5071:
  8255     1670  2E50               	goto	l3628
  8256     1671                     u5070:
  8257     1671                     l3636:
  8258                           
  8259                           ;washing_machine_functions_def.c: 25:     clcd_print("powering on",(0xC0 + 3));
  8260     1671  3093               	movlw	low (STR_24| (0+32768))
  8261     1672  00A0               	movwf	clcd_print@str
  8262     1673  3090               	movlw	high (STR_24| (0+32768))
  8263     1674  00A1               	movwf	clcd_print@str+1
  8264     1675  30C3               	movlw	195
  8265     1676  00A2               	movwf	clcd_print@addr
  8266     1677  120A  118A  27BE  160A  118A  	fcall	_clcd_print
  8267                           
  8268                           ;washing_machine_functions_def.c: 26:     clcd_print("washing_machine",(0x90 + 1));
  8269     167C  3011               	movlw	low (STR_25| (0+32768))
  8270     167D  1283               	bcf	3,5	;RP0=0, select bank0
  8271     167E  1303               	bcf	3,6	;RP1=0, select bank0
  8272     167F  00A0               	movwf	clcd_print@str
  8273     1680  3090               	movlw	high (STR_25| (0+32768))
  8274     1681  00A1               	movwf	clcd_print@str+1
  8275     1682  3091               	movlw	145
  8276     1683  00A2               	movwf	clcd_print@addr
  8277     1684  120A  118A  27BE  160A  118A  	fcall	_clcd_print
  8278     1689                     l3638:
  8279                           
  8280                           ;washing_machine_functions_def.c: 28:     for(unsigned char i=0;i<16;i++)
  8281     1689  1283               	bcf	3,5	;RP0=0, select bank0
  8282     168A  1303               	bcf	3,6	;RP1=0, select bank0
  8283     168B  01A9               	clrf	power_on_screen@i_194
  8284     168C                     l3644:
  8285                           
  8286                           ;washing_machine_functions_def.c: 29:     {;washing_machine_functions_def.c: 30:     clc
      +                          d_putch(0xFF,(0xD0 + i));
  8287     168C  0829               	movf	power_on_screen@i_194,w
  8288     168D  3ED0               	addlw	208
  8289     168E  00F8               	movwf	clcd_putch@addr
  8290     168F  30FF               	movlw	255
  8291     1690  160A  118A  2365  160A  118A  	fcall	_clcd_putch
  8292     1695                     l3646:
  8293                           
  8294                           ;washing_machine_functions_def.c: 31:     _delay((unsigned long)((100000)*(20000000/4000
      +                          000.0)));
  8295     1695  3003               	movlw	3
  8296     1696  1283               	bcf	3,5	;RP0=0, select bank0
  8297     1697  1303               	bcf	3,6	;RP1=0, select bank0
  8298     1698  00A7               	movwf	??_power_on_screen+2
  8299     1699  308A               	movlw	138
  8300     169A  00A6               	movwf	??_power_on_screen+1
  8301     169B  3055               	movlw	85
  8302     169C  00A5               	movwf	??_power_on_screen
  8303     169D                     u5747:
  8304     169D  0BA5               	decfsz	??_power_on_screen,f
  8305     169E  2E9D               	goto	u5747
  8306     169F  0BA6               	decfsz	??_power_on_screen+1,f
  8307     16A0  2E9D               	goto	u5747
  8308     16A1  0BA7               	decfsz	??_power_on_screen+2,f
  8309     16A2  2E9D               	goto	u5747
  8310     16A3                     l3648:
  8311                           
  8312                           ;washing_machine_functions_def.c: 32:     }
  8313     16A3  3001               	movlw	1
  8314     16A4  1283               	bcf	3,5	;RP0=0, select bank0
  8315     16A5  1303               	bcf	3,6	;RP1=0, select bank0
  8316     16A6  07A9               	addwf	power_on_screen@i_194,f
  8317     16A7                     l3650:
  8318     16A7  3010               	movlw	16
  8319     16A8  0229               	subwf	power_on_screen@i_194,w
  8320     16A9  1C03               	skipc
  8321     16AA  2EAC               	goto	u5081
  8322     16AB  2EAD               	goto	u5080
  8323     16AC                     u5081:
  8324     16AC  2E8C               	goto	l3644
  8325     16AD                     u5080:
  8326     16AD                     l3652:
  8327                           
  8328                           ;washing_machine_functions_def.c: 34:     _delay((unsigned long)((500000)*(20000000/4000
      +                          000.0)));
  8329     16AD  300D               	movlw	13
  8330     16AE  1283               	bcf	3,5	;RP0=0, select bank0
  8331     16AF  1303               	bcf	3,6	;RP1=0, select bank0
  8332     16B0  00A7               	movwf	??_power_on_screen+2
  8333     16B1  30AF               	movlw	175
  8334     16B2  00A6               	movwf	??_power_on_screen+1
  8335     16B3  30B5               	movlw	181
  8336     16B4  00A5               	movwf	??_power_on_screen
  8337     16B5                     u5757:
  8338     16B5  0BA5               	decfsz	??_power_on_screen,f
  8339     16B6  2EB5               	goto	u5757
  8340     16B7  0BA6               	decfsz	??_power_on_screen+1,f
  8341     16B8  2EB5               	goto	u5757
  8342     16B9  0BA7               	decfsz	??_power_on_screen+2,f
  8343     16BA  2EB5               	goto	u5757
  8344     16BB  2EBC               	nop2
  8345     16BC                     l212:
  8346     16BC  0008               	return
  8347     16BD                     __end_of_power_on_screen:
  8348                           
  8349                           	psect	text19
  8350     1365                     __ptext19:	
  8351 ;; *************** function _clcd_putch *****************
  8352 ;; Defined at:
  8353 ;;		line 49 in file "clcd.c"
  8354 ;; Parameters:    Size  Location     Type
  8355 ;;  data            1    wreg     const unsigned char 
  8356 ;;  addr            1    8[COMMON] unsigned char 
  8357 ;; Auto vars:     Size  Location     Type
  8358 ;;  data            1    4[BANK0 ] const unsigned char 
  8359 ;; Return value:  Size  Location     Type
  8360 ;;                  1    wreg      void 
  8361 ;; Registers used:
  8362 ;;		wreg, status,2, status,0, pclath, cstack
  8363 ;; Tracked objects:
  8364 ;;		On entry : 0/0
  8365 ;;		On exit  : 0/0
  8366 ;;		Unchanged: 0/0
  8367 ;; Data sizes:     COMMON   BANK0   BANK1   BANK3   BANK2
  8368 ;;      Params:         1       0       0       0       0
  8369 ;;      Locals:         0       1       0       0       0
  8370 ;;      Temps:          0       0       0       0       0
  8371 ;;      Totals:         1       1       0       0       0
  8372 ;;Total ram usage:        2 bytes
  8373 ;; Hardware stack levels used: 1
  8374 ;; Hardware stack levels required when called: 2
  8375 ;; This function calls:
  8376 ;;		_clcd_write
  8377 ;; This function is called by:
  8378 ;;		_power_on_screen
  8379 ;;		_washing_program_display
  8380 ;;		_water_level_screen
  8381 ;;		_run_program
  8382 ;; This function uses a non-reentrant model
  8383 ;;
  8384                           
  8385     1365                     _clcd_putch:	
  8386                           ;psect for function _clcd_putch
  8387                           
  8388                           
  8389                           ;incstack = 0
  8390                           ; Regs used in _clcd_putch: [wreg+status,2+status,0+pclath+cstack]
  8391                           ;clcd_putch@data stored from wreg
  8392     1365  1283               	bcf	3,5	;RP0=0, select bank0
  8393     1366  1303               	bcf	3,6	;RP1=0, select bank0
  8394     1367  00A4               	movwf	clcd_putch@data
  8395     1368                     l3196:
  8396                           
  8397                           ;clcd.c: 49: void clcd_putch(const char data, unsigned char addr);clcd.c: 50: {;clcd.c: 
      +                          51:     clcd_write(addr, 0);
  8398     1368  01F2               	clrf	clcd_write@mode
  8399     1369  0878               	movf	clcd_putch@addr,w
  8400     136A  160A  118A  237A  160A  118A  	fcall	_clcd_write
  8401                           
  8402                           ;clcd.c: 52:     clcd_write(data, 1);
  8403     136F  01F2               	clrf	clcd_write@mode
  8404     1370  0AF2               	incf	clcd_write@mode,f
  8405     1371  1283               	bcf	3,5	;RP0=0, select bank0
  8406     1372  1303               	bcf	3,6	;RP1=0, select bank0
  8407     1373  0824               	movf	clcd_putch@data,w
  8408     1374  160A  118A  237A  160A  118A  	fcall	_clcd_write
  8409     1379                     l100:
  8410     1379  0008               	return
  8411     137A                     __end_of_clcd_putch:
  8412                           
  8413                           	psect	text20
  8414     07BE                     __ptext20:	
  8415 ;; *************** function _clcd_print *****************
  8416 ;; Defined at:
  8417 ;;		line 55 in file "clcd.c"
  8418 ;; Parameters:    Size  Location     Type
  8419 ;;  str             2    0[BANK0 ] PTR const unsigned char 
  8420 ;;		 -> STR_48(10), STR_47(10), STR_46(5), STR_45(10), 
  8421 ;;		 -> STR_44(15), STR_43(13), STR_42(14), STR_41(17), 
  8422 ;;		 -> STR_40(6), STR_39(7), STR_38(6), STR_37(7), 
  8423 ;;		 -> STR_36(6), STR_35(7), STR_34(6), STR_33(10), 
  8424 ;;		 -> STR_32(10), STR_31(5), STR_30(10), STR_29(5), 
  8425 ;;		 -> STR_28(5), STR_27(13), STR_26(16), STR_25(16), 
  8426 ;;		 -> STR_24(12), STR_23(4), STR_22(5), STR_21(7), 
  8427 ;;		 -> STR_20(4), STR_19(5), STR_18(11), STR_17(10), 
  8428 ;;		 -> STR_16(9), STR_15(10), STR_14(11), STR_13(8), 
  8429 ;;		 -> STR_12(11), STR_11(11), STR_10(7), STR_9(10), 
  8430 ;;		 -> STR_8(6), STR_7(6), STR_6(10), STR_5(11), 
  8431 ;;		 -> STR_4(13), STR_3(16), STR_2(9), STR_1(14), 
  8432 ;;  addr            1    2[BANK0 ] unsigned char 
  8433 ;; Auto vars:     Size  Location     Type
  8434 ;;		None
  8435 ;; Return value:  Size  Location     Type
  8436 ;;                  1    wreg      void 
  8437 ;; Registers used:
  8438 ;;		wreg, fsr0l, fsr0h, status,2, status,0, btemp+1, pclath, cstack
  8439 ;; Tracked objects:
  8440 ;;		On entry : 0/0
  8441 ;;		On exit  : 0/0
  8442 ;;		Unchanged: 0/0
  8443 ;; Data sizes:     COMMON   BANK0   BANK1   BANK3   BANK2
  8444 ;;      Params:         0       3       0       0       0
  8445 ;;      Locals:         0       0       0       0       0
  8446 ;;      Temps:          0       0       0       0       0
  8447 ;;      Totals:         0       3       0       0       0
  8448 ;;Total ram usage:        3 bytes
  8449 ;; Hardware stack levels used: 1
  8450 ;; Hardware stack levels required when called: 2
  8451 ;; This function calls:
  8452 ;;		_clcd_write
  8453 ;; This function is called by:
  8454 ;;		_main
  8455 ;;		_power_on_screen
  8456 ;;		_washing_program_display
  8457 ;;		_water_level_screen
  8458 ;;		_run_program
  8459 ;;		_door_status_check
  8460 ;; This function uses a non-reentrant model
  8461 ;;
  8462                           
  8463     07BE                     _clcd_print:	
  8464                           ;psect for function _clcd_print
  8465                           
  8466     07BE                     l2940:	
  8467                           ;incstack = 0
  8468                           ; Regs used in _clcd_print: [wreg-fsr0h+status,2+status,0+btemp+1+pclath+cstack]
  8469                           
  8470                           
  8471                           ;clcd.c: 55: void clcd_print(const char *str, unsigned char addr);clcd.c: 56: {;clcd.c: 
      +                          57:     clcd_write(addr, 0);
  8472     07BE  01F2               	clrf	clcd_write@mode
  8473     07BF  1283               	bcf	3,5	;RP0=0, select bank0
  8474     07C0  1303               	bcf	3,6	;RP1=0, select bank0
  8475     07C1  0822               	movf	clcd_print@addr,w
  8476     07C2  160A  118A  237A  120A  118A  	fcall	_clcd_write
  8477                           
  8478                           ;clcd.c: 59:     while (*str != '\0')
  8479     07C7  2FE0               	goto	l2946
  8480     07C8                     l2942:
  8481                           
  8482                           ;clcd.c: 60:     {;clcd.c: 61:         clcd_write(*str, 1);
  8483     07C8  01F2               	clrf	clcd_write@mode
  8484     07C9  0AF2               	incf	clcd_write@mode,f
  8485     07CA  0821               	movf	clcd_print@str+1,w
  8486     07CB  00FF               	movwf	btemp+1
  8487     07CC  0820               	movf	clcd_print@str,w
  8488     07CD  0084               	movwf	4
  8489     07CE  160A  118A  2185  120A  118A  	fcall	stringtab
  8490     07D3  160A  118A  237A  120A  118A  	fcall	_clcd_write
  8491     07D8                     l2944:
  8492                           
  8493                           ;clcd.c: 62:         str++;
  8494     07D8  3001               	movlw	1
  8495     07D9  1283               	bcf	3,5	;RP0=0, select bank0
  8496     07DA  1303               	bcf	3,6	;RP1=0, select bank0
  8497     07DB  07A0               	addwf	clcd_print@str,f
  8498     07DC  1803               	skipnc
  8499     07DD  0AA1               	incf	clcd_print@str+1,f
  8500     07DE  3000               	movlw	0
  8501     07DF  07A1               	addwf	clcd_print@str+1,f
  8502     07E0                     l2946:
  8503                           
  8504                           ;clcd.c: 59:     while (*str != '\0')
  8505     07E0  1283               	bcf	3,5	;RP0=0, select bank0
  8506     07E1  1303               	bcf	3,6	;RP1=0, select bank0
  8507     07E2  0821               	movf	clcd_print@str+1,w
  8508     07E3  00FF               	movwf	btemp+1
  8509     07E4  0820               	movf	clcd_print@str,w
  8510     07E5  0084               	movwf	4
  8511     07E6  160A  118A  2185  120A  118A  	fcall	stringtab
  8512     07EB  3A00               	xorlw	0
  8513     07EC  1D03               	skipz
  8514     07ED  2FEF               	goto	u3541
  8515     07EE  2FF0               	goto	u3540
  8516     07EF                     u3541:
  8517     07EF  2FC8               	goto	l2942
  8518     07F0                     u3540:
  8519     07F0                     l106:
  8520     07F0  0008               	return
  8521     07F1                     __end_of_clcd_print:
  8522                           
  8523                           	psect	text21
  8524     0802                     __ptext21:	
  8525 ;; *************** function _init_config *****************
  8526 ;; Defined at:
  8527 ;;		line 7 in file "main.c"
  8528 ;; Parameters:    Size  Location     Type
  8529 ;;		None
  8530 ;; Auto vars:     Size  Location     Type
  8531 ;;		None
  8532 ;; Return value:  Size  Location     Type
  8533 ;;                  1    wreg      void 
  8534 ;; Registers used:
  8535 ;;		wreg, status,2, status,0, pclath, cstack
  8536 ;; Tracked objects:
  8537 ;;		On entry : 0/0
  8538 ;;		On exit  : 0/0
  8539 ;;		Unchanged: 0/0
  8540 ;; Data sizes:     COMMON   BANK0   BANK1   BANK3   BANK2
  8541 ;;      Params:         0       0       0       0       0
  8542 ;;      Locals:         0       0       0       0       0
  8543 ;;      Temps:          0       0       0       0       0
  8544 ;;      Totals:         0       0       0       0       0
  8545 ;;Total ram usage:        0 bytes
  8546 ;; Hardware stack levels used: 1
  8547 ;; Hardware stack levels required when called: 4
  8548 ;; This function calls:
  8549 ;;		_init_clcd
  8550 ;;		_init_digital_keypad
  8551 ;;		_init_timer2
  8552 ;; This function is called by:
  8553 ;;		_main
  8554 ;; This function uses a non-reentrant model
  8555 ;;
  8556                           
  8557     0802                     _init_config:	
  8558                           ;psect for function _init_config
  8559                           
  8560     0802                     l3560:	
  8561                           ;incstack = 0
  8562                           ; Regs used in _init_config: [wreg+status,2+status,0+pclath+cstack]
  8563                           
  8564                           
  8565                           ;main.c: 9: 
  8566     0802  160A  118A  2336  120A  158A  	fcall	_init_clcd
  8567                           
  8568                           ;main.c: 11:     PEIE = 1;
  8569     0807  160A  118A  2328  120A  158A  	fcall	_init_digital_keypad
  8570     080C                     l3562:
  8571                           
  8572                           ;main.c: 13:     TRISC2 = 0;
  8573     080C  120A  118A  27F1  120A  158A  	fcall	_init_timer2
  8574     0811                     l3564:
  8575                           
  8576                           ;main.c: 15:     RC2 = 0 ;
  8577     0811  178B               	bsf	11,7	;volatile
  8578     0812                     l3566:
  8579                           
  8580                           ;main.c: 16: 
  8581     0812  170B               	bsf	11,6	;volatile
  8582     0813                     l3568:
  8583                           
  8584                           ;main.c: 17: }
  8585     0813  1683               	bsf	3,5	;RP0=1, select bank1
  8586     0814  1303               	bcf	3,6	;RP1=0, select bank1
  8587     0815  1087               	bcf	7,1	;volatile
  8588     0816                     l3570:
  8589                           
  8590                           ;main.c: 18: void main(void) {
  8591     0816  1107               	bcf	7,2	;volatile
  8592     0817                     l3572:
  8593                           
  8594                           ;main.c: 19:     init_config();
  8595     0817  1283               	bcf	3,5	;RP0=0, select bank0
  8596     0818  1303               	bcf	3,6	;RP1=0, select bank0
  8597     0819  1087               	bcf	7,1	;volatile
  8598     081A                     l3574:
  8599                           
  8600                           ;main.c: 20:     unsigned char key;
  8601     081A  1107               	bcf	7,2	;volatile
  8602     081B                     l43:
  8603     081B  0008               	return
  8604     081C                     __end_of_init_config:
  8605                           
  8606                           	psect	text22
  8607     07F1                     __ptext22:	
  8608 ;; *************** function _init_timer2 *****************
  8609 ;; Defined at:
  8610 ;;		line 4 in file "timers.c"
  8611 ;; Parameters:    Size  Location     Type
  8612 ;;		None
  8613 ;; Auto vars:     Size  Location     Type
  8614 ;;		None
  8615 ;; Return value:  Size  Location     Type
  8616 ;;                  1    wreg      void 
  8617 ;; Registers used:
  8618 ;;		None
  8619 ;; Tracked objects:
  8620 ;;		On entry : 0/0
  8621 ;;		On exit  : 0/0
  8622 ;;		Unchanged: 0/0
  8623 ;; Data sizes:     COMMON   BANK0   BANK1   BANK3   BANK2
  8624 ;;      Params:         0       0       0       0       0
  8625 ;;      Locals:         0       0       0       0       0
  8626 ;;      Temps:          0       0       0       0       0
  8627 ;;      Totals:         0       0       0       0       0
  8628 ;;Total ram usage:        0 bytes
  8629 ;; Hardware stack levels used: 1
  8630 ;; Hardware stack levels required when called: 1
  8631 ;; This function calls:
  8632 ;;		Nothing
  8633 ;; This function is called by:
  8634 ;;		_init_config
  8635 ;; This function uses a non-reentrant model
  8636 ;;
  8637                           
  8638     07F1                     _init_timer2:	
  8639                           ;psect for function _init_timer2
  8640                           
  8641     07F1                     l3194:	
  8642                           ;incstack = 0
  8643                           ; Regs used in _init_timer2: []
  8644                           
  8645                           
  8646                           ;timers.c: 9:     TMR2ON = 0;
  8647     07F1  1283               	bcf	3,5	;RP0=0, select bank0
  8648     07F2  1303               	bcf	3,6	;RP1=0, select bank0
  8649     07F3  1112               	bcf	18,2	;volatile
  8650                           
  8651                           ;timers.c: 12:     TMR2IE = 1;
  8652     07F4  1683               	bsf	3,5	;RP0=1, select bank1
  8653     07F5  1303               	bcf	3,6	;RP1=0, select bank1
  8654     07F6  148C               	bsf	12,1	;volatile
  8655                           
  8656                           ;timers.c: 16:     TMR2IF = 0;
  8657     07F7  1283               	bcf	3,5	;RP0=0, select bank0
  8658     07F8  1303               	bcf	3,6	;RP1=0, select bank0
  8659     07F9  108C               	bcf	12,1	;volatile
  8660                           
  8661                           ;timers.c: 19:     PR2 = 250;
  8662     07FA  30FA               	movlw	250
  8663     07FB  1683               	bsf	3,5	;RP0=1, select bank1
  8664     07FC  1303               	bcf	3,6	;RP1=0, select bank1
  8665     07FD  0092               	movwf	18	;volatile
  8666     07FE                     l117:
  8667     07FE  0008               	return
  8668     07FF                     __end_of_init_timer2:
  8669                           
  8670                           	psect	text23
  8671     1328                     __ptext23:	
  8672 ;; *************** function _init_digital_keypad *****************
  8673 ;; Defined at:
  8674 ;;		line 4 in file "digital_keypad.c"
  8675 ;; Parameters:    Size  Location     Type
  8676 ;;		None
  8677 ;; Auto vars:     Size  Location     Type
  8678 ;;		None
  8679 ;; Return value:  Size  Location     Type
  8680 ;;                  1    wreg      void 
  8681 ;; Registers used:
  8682 ;;		wreg, status,2
  8683 ;; Tracked objects:
  8684 ;;		On entry : 0/0
  8685 ;;		On exit  : 0/0
  8686 ;;		Unchanged: 0/0
  8687 ;; Data sizes:     COMMON   BANK0   BANK1   BANK3   BANK2
  8688 ;;      Params:         0       0       0       0       0
  8689 ;;      Locals:         0       0       0       0       0
  8690 ;;      Temps:          0       0       0       0       0
  8691 ;;      Totals:         0       0       0       0       0
  8692 ;;Total ram usage:        0 bytes
  8693 ;; Hardware stack levels used: 1
  8694 ;; Hardware stack levels required when called: 1
  8695 ;; This function calls:
  8696 ;;		Nothing
  8697 ;; This function is called by:
  8698 ;;		_init_config
  8699 ;; This function uses a non-reentrant model
  8700 ;;
  8701                           
  8702     1328                     _init_digital_keypad:	
  8703                           ;psect for function _init_digital_keypad
  8704                           
  8705     1328                     l3192:	
  8706                           ;incstack = 0
  8707                           ; Regs used in _init_digital_keypad: [wreg+status,2]
  8708                           
  8709                           
  8710                           ;digital_keypad.c: 7:     TRISB = TRISB | 0x3F;
  8711     1328  1683               	bsf	3,5	;RP0=1, select bank1
  8712     1329  1303               	bcf	3,6	;RP1=0, select bank1
  8713     132A  0806               	movf	6,w	;volatile
  8714     132B  383F               	iorlw	63
  8715     132C  0086               	movwf	6	;volatile
  8716     132D                     l142:
  8717     132D  0008               	return
  8718     132E                     __end_of_init_digital_keypad:
  8719                           
  8720                           	psect	text24
  8721     1336                     __ptext24:	
  8722 ;; *************** function _init_clcd *****************
  8723 ;; Defined at:
  8724 ;;		line 37 in file "clcd.c"
  8725 ;; Parameters:    Size  Location     Type
  8726 ;;		None
  8727 ;; Auto vars:     Size  Location     Type
  8728 ;;		None
  8729 ;; Return value:  Size  Location     Type
  8730 ;;                  1    wreg      void 
  8731 ;; Registers used:
  8732 ;;		wreg, status,2, status,0, pclath, cstack
  8733 ;; Tracked objects:
  8734 ;;		On entry : 0/0
  8735 ;;		On exit  : 0/0
  8736 ;;		Unchanged: 0/0
  8737 ;; Data sizes:     COMMON   BANK0   BANK1   BANK3   BANK2
  8738 ;;      Params:         0       0       0       0       0
  8739 ;;      Locals:         0       0       0       0       0
  8740 ;;      Temps:          0       0       0       0       0
  8741 ;;      Totals:         0       0       0       0       0
  8742 ;;Total ram usage:        0 bytes
  8743 ;; Hardware stack levels used: 1
  8744 ;; Hardware stack levels required when called: 3
  8745 ;; This function calls:
  8746 ;;		_init_display_controller
  8747 ;; This function is called by:
  8748 ;;		_init_config
  8749 ;; This function uses a non-reentrant model
  8750 ;;
  8751                           
  8752     1336                     _init_clcd:	
  8753                           ;psect for function _init_clcd
  8754                           
  8755     1336                     l3184:	
  8756                           ;incstack = 0
  8757                           ; Regs used in _init_clcd: [wreg+status,2+status,0+pclath+cstack]
  8758                           
  8759                           
  8760                           ;clcd.c: 40:     TRISD = 0x00;
  8761     1336  1683               	bsf	3,5	;RP0=1, select bank1
  8762     1337  1303               	bcf	3,6	;RP1=0, select bank1
  8763     1338  0188               	clrf	8	;volatile
  8764     1339                     l3186:
  8765                           
  8766                           ;clcd.c: 43:     TRISE2 = 0;
  8767     1339  1109               	bcf	9,2	;volatile
  8768     133A                     l3188:
  8769                           
  8770                           ;clcd.c: 44:     TRISE1 = 0;
  8771     133A  1089               	bcf	9,1	;volatile
  8772     133B                     l3190:
  8773                           
  8774                           ;clcd.c: 46:     init_display_controller();
  8775     133B  160A  118A  24CF  160A  118A  	fcall	_init_display_controller
  8776     1340                     l97:
  8777     1340  0008               	return
  8778     1341                     __end_of_init_clcd:
  8779                           
  8780                           	psect	text25
  8781     14CF                     __ptext25:	
  8782 ;; *************** function _init_display_controller *****************
  8783 ;; Defined at:
  8784 ;;		line 16 in file "clcd.c"
  8785 ;; Parameters:    Size  Location     Type
  8786 ;;		None
  8787 ;; Auto vars:     Size  Location     Type
  8788 ;;		None
  8789 ;; Return value:  Size  Location     Type
  8790 ;;                  1    wreg      void 
  8791 ;; Registers used:
  8792 ;;		wreg, status,2, status,0, pclath, cstack
  8793 ;; Tracked objects:
  8794 ;;		On entry : 0/0
  8795 ;;		On exit  : 0/0
  8796 ;;		Unchanged: 0/0
  8797 ;; Data sizes:     COMMON   BANK0   BANK1   BANK3   BANK2
  8798 ;;      Params:         0       0       0       0       0
  8799 ;;      Locals:         0       0       0       0       0
  8800 ;;      Temps:          2       0       0       0       0
  8801 ;;      Totals:         2       0       0       0       0
  8802 ;;Total ram usage:        2 bytes
  8803 ;; Hardware stack levels used: 1
  8804 ;; Hardware stack levels required when called: 2
  8805 ;; This function calls:
  8806 ;;		_clcd_write
  8807 ;; This function is called by:
  8808 ;;		_init_clcd
  8809 ;; This function uses a non-reentrant model
  8810 ;;
  8811                           
  8812     14CF                     _init_display_controller:	
  8813                           ;psect for function _init_display_controller
  8814                           
  8815     14CF                     l2952:	
  8816                           ;incstack = 0
  8817                           ; Regs used in _init_display_controller: [wreg+status,2+status,0+pclath+cstack]
  8818                           
  8819                           
  8820                           ;clcd.c: 19:     _delay((unsigned long)((30)*(20000000/4000.0)));
  8821     14CF  30C3               	movlw	195
  8822     14D0  00F7               	movwf	??_init_display_controller+1
  8823     14D1  30CD               	movlw	205
  8824     14D2  00F6               	movwf	??_init_display_controller
  8825     14D3                     u5767:
  8826     14D3  0BF6               	decfsz	??_init_display_controller,f
  8827     14D4  2CD3               	goto	u5767
  8828     14D5  0BF7               	decfsz	??_init_display_controller+1,f
  8829     14D6  2CD3               	goto	u5767
  8830     14D7                     l2954:
  8831                           
  8832                           ;clcd.c: 22:     clcd_write(0x33, 0);
  8833     14D7  01F2               	clrf	clcd_write@mode
  8834     14D8  3033               	movlw	51
  8835     14D9  160A  118A  237A  160A  118A  	fcall	_clcd_write
  8836     14DE                     l2956:
  8837                           
  8838                           ;clcd.c: 23:     _delay((unsigned long)((4100)*(20000000/4000000.0)));
  8839     14DE  301B               	movlw	27
  8840     14DF  00F7               	movwf	??_init_display_controller+1
  8841     14E0  309E               	movlw	158
  8842     14E1  00F6               	movwf	??_init_display_controller
  8843     14E2                     u5777:
  8844     14E2  0BF6               	decfsz	??_init_display_controller,f
  8845     14E3  2CE2               	goto	u5777
  8846     14E4  0BF7               	decfsz	??_init_display_controller+1,f
  8847     14E5  2CE2               	goto	u5777
  8848     14E6  0000               	nop
  8849                           
  8850                           ;clcd.c: 24:     clcd_write(0x33, 0);
  8851     14E7  01F2               	clrf	clcd_write@mode
  8852     14E8  3033               	movlw	51
  8853     14E9  160A  118A  237A  160A  118A  	fcall	_clcd_write
  8854     14EE                     l2958:
  8855                           
  8856                           ;clcd.c: 25:     _delay((unsigned long)((100)*(20000000/4000000.0)));
  8857     14EE  30A6               	movlw	166
  8858     14EF  00F6               	movwf	??_init_display_controller
  8859     14F0                     u5787:
  8860     14F0  0BF6               	decfsz	??_init_display_controller,f
  8861     14F1  2CF0               	goto	u5787
  8862     14F2  0000               	nop
  8863     14F3                     l2960:
  8864                           
  8865                           ;clcd.c: 26:     clcd_write(0x33, 0);
  8866     14F3  01F2               	clrf	clcd_write@mode
  8867     14F4  3033               	movlw	51
  8868     14F5  160A  118A  237A  160A  118A  	fcall	_clcd_write
  8869     14FA                     l2962:
  8870                           
  8871                           ;clcd.c: 27:     _delay((unsigned long)((1)*(20000000/4000000.0)));
  8872     14FA  2CFB               	nop2	;2 cycle nop
  8873     14FB  2CFC               	nop2	;2 cycle nop
  8874     14FC  0000               	nop
  8875     14FD                     l2964:
  8876                           
  8877                           ;clcd.c: 29:     clcd_write(0x3C, 0);
  8878     14FD  01F2               	clrf	clcd_write@mode
  8879     14FE  303C               	movlw	60
  8880     14FF  160A  118A  237A  160A  118A  	fcall	_clcd_write
  8881     1504                     l2966:
  8882                           
  8883                           ;clcd.c: 30:     _delay((unsigned long)((100)*(20000000/4000000.0)));
  8884     1504  30A6               	movlw	166
  8885     1505  00F6               	movwf	??_init_display_controller
  8886     1506                     u5797:
  8887     1506  0BF6               	decfsz	??_init_display_controller,f
  8888     1507  2D06               	goto	u5797
  8889     1508  0000               	nop
  8890                           
  8891                           ;clcd.c: 31:     clcd_write(0x01, 0);
  8892     1509  01F2               	clrf	clcd_write@mode
  8893     150A  3001               	movlw	1
  8894     150B  160A  118A  237A  160A  118A  	fcall	_clcd_write
  8895     1510                     l2968:
  8896                           
  8897                           ;clcd.c: 32:     _delay((unsigned long)((500)*(20000000/4000000.0)));
  8898     1510  3004               	movlw	4
  8899     1511  00F7               	movwf	??_init_display_controller+1
  8900     1512  303D               	movlw	61
  8901     1513  00F6               	movwf	??_init_display_controller
  8902     1514                     u5807:
  8903     1514  0BF6               	decfsz	??_init_display_controller,f
  8904     1515  2D14               	goto	u5807
  8905     1516  0BF7               	decfsz	??_init_display_controller+1,f
  8906     1517  2D14               	goto	u5807
  8907     1518  2D19               	nop2
  8908     1519                     l2970:
  8909                           
  8910                           ;clcd.c: 33:     clcd_write(0x0C, 0);
  8911     1519  01F2               	clrf	clcd_write@mode
  8912     151A  300C               	movlw	12
  8913     151B  160A  118A  237A  160A  118A  	fcall	_clcd_write
  8914                           
  8915                           ;clcd.c: 34:     _delay((unsigned long)((100)*(20000000/4000000.0)));
  8916     1520  30A6               	movlw	166
  8917     1521  00F6               	movwf	??_init_display_controller
  8918     1522                     u5817:
  8919     1522  0BF6               	decfsz	??_init_display_controller,f
  8920     1523  2D22               	goto	u5817
  8921     1524  0000               	nop
  8922     1525                     l94:
  8923     1525  0008               	return
  8924     1526                     __end_of_init_display_controller:
  8925                           
  8926                           	psect	text26
  8927     137A                     __ptext26:	
  8928 ;; *************** function _clcd_write *****************
  8929 ;; Defined at:
  8930 ;;		line 4 in file "clcd.c"
  8931 ;; Parameters:    Size  Location     Type
  8932 ;;  byte            1    wreg     unsigned char 
  8933 ;;  mode            1    2[COMMON] unsigned char 
  8934 ;; Auto vars:     Size  Location     Type
  8935 ;;  byte            1    5[COMMON] unsigned char 
  8936 ;; Return value:  Size  Location     Type
  8937 ;;                  1    wreg      void 
  8938 ;; Registers used:
  8939 ;;		wreg
  8940 ;; Tracked objects:
  8941 ;;		On entry : 0/0
  8942 ;;		On exit  : 0/0
  8943 ;;		Unchanged: 0/0
  8944 ;; Data sizes:     COMMON   BANK0   BANK1   BANK3   BANK2
  8945 ;;      Params:         1       0       0       0       0
  8946 ;;      Locals:         1       0       0       0       0
  8947 ;;      Temps:          2       0       0       0       0
  8948 ;;      Totals:         4       0       0       0       0
  8949 ;;Total ram usage:        4 bytes
  8950 ;; Hardware stack levels used: 1
  8951 ;; Hardware stack levels required when called: 1
  8952 ;; This function calls:
  8953 ;;		Nothing
  8954 ;; This function is called by:
  8955 ;;		_init_display_controller
  8956 ;;		_clcd_putch
  8957 ;;		_clcd_print
  8958 ;;		_clear_screen
  8959 ;; This function uses a non-reentrant model
  8960 ;;
  8961                           
  8962     137A                     _clcd_write:	
  8963                           ;psect for function _clcd_write
  8964                           
  8965                           
  8966                           ;incstack = 0
  8967                           ; Regs used in _clcd_write: [wreg]
  8968                           ;clcd_write@byte stored from wreg
  8969     137A  00F5               	movwf	clcd_write@byte
  8970     137B                     l2932:
  8971                           
  8972                           ;clcd.c: 4: void clcd_write(unsigned char byte, unsigned char mode);clcd.c: 5: {;clcd.c:
      +                           6:     RE2 = mode ;
  8973     137B  1872               	btfsc	clcd_write@mode,0
  8974     137C  2B7E               	goto	u3521
  8975     137D  2B82               	goto	u3520
  8976     137E                     u3521:
  8977     137E  1283               	bcf	3,5	;RP0=0, select bank0
  8978     137F  1303               	bcf	3,6	;RP1=0, select bank0
  8979     1380  1509               	bsf	9,2	;volatile
  8980     1381  2B85               	goto	u3534
  8981     1382                     u3520:
  8982     1382  1283               	bcf	3,5	;RP0=0, select bank0
  8983     1383  1303               	bcf	3,6	;RP1=0, select bank0
  8984     1384  1109               	bcf	9,2	;volatile
  8985     1385                     u3534:
  8986     1385                     l2934:
  8987                           
  8988                           ;clcd.c: 7:     PORTD = byte;
  8989     1385  0875               	movf	clcd_write@byte,w
  8990     1386  0088               	movwf	8	;volatile
  8991     1387                     l2936:
  8992                           
  8993                           ;clcd.c: 9:     RE1 = 1;
  8994     1387  1489               	bsf	9,1	;volatile
  8995                           
  8996                           ;clcd.c: 10:     _delay((unsigned long)((100)*(20000000/4000000.0)));
  8997     1388  30A6               	movlw	166
  8998     1389  00F3               	movwf	??_clcd_write
  8999     138A                     u5827:
  9000     138A  0BF3               	decfsz	??_clcd_write,f
  9001     138B  2B8A               	goto	u5827
  9002     138C  0000               	nop
  9003     138D                     l2938:
  9004                           
  9005                           ;clcd.c: 11:     RE1 = 0;
  9006     138D  1283               	bcf	3,5	;RP0=0, select bank0
  9007     138E  1303               	bcf	3,6	;RP1=0, select bank0
  9008     138F  1089               	bcf	9,1	;volatile
  9009                           
  9010                           ;clcd.c: 13:     _delay((unsigned long)((4100)*(20000000/4000000.0)));
  9011     1390  301B               	movlw	27
  9012     1391  00F4               	movwf	??_clcd_write+1
  9013     1392  309E               	movlw	158
  9014     1393  00F3               	movwf	??_clcd_write
  9015     1394                     u5837:
  9016     1394  0BF3               	decfsz	??_clcd_write,f
  9017     1395  2B94               	goto	u5837
  9018     1396  0BF4               	decfsz	??_clcd_write+1,f
  9019     1397  2B94               	goto	u5837
  9020     1398  0000               	nop
  9021     1399                     l91:
  9022     1399  0008               	return
  9023     139A                     __end_of_clcd_write:
  9024                           
  9025                           	psect	text27
  9026     142E                     __ptext27:	
  9027 ;; *************** function _isr *****************
  9028 ;; Defined at:
  9029 ;;		line 4 in file "isr.c"
  9030 ;; Parameters:    Size  Location     Type
  9031 ;;		None
  9032 ;; Auto vars:     Size  Location     Type
  9033 ;;		None
  9034 ;; Return value:  Size  Location     Type
  9035 ;;                  1    wreg      void 
  9036 ;; Registers used:
  9037 ;;		wreg, status,2, status,0
  9038 ;; Tracked objects:
  9039 ;;		On entry : 0/0
  9040 ;;		On exit  : 0/0
  9041 ;;		Unchanged: 0/0
  9042 ;; Data sizes:     COMMON   BANK0   BANK1   BANK3   BANK2
  9043 ;;      Params:         0       0       0       0       0
  9044 ;;      Locals:         0       0       0       0       0
  9045 ;;      Temps:          2       0       0       0       0
  9046 ;;      Totals:         2       0       0       0       0
  9047 ;;Total ram usage:        2 bytes
  9048 ;; Hardware stack levels used: 1
  9049 ;; This function calls:
  9050 ;;		Nothing
  9051 ;; This function is called by:
  9052 ;;		Interrupt level 1
  9053 ;; This function uses a non-reentrant model
  9054 ;;
  9055                           
  9056     142E                     _isr:	
  9057                           ;psect for function _isr
  9058                           
  9059     142E                     i1l2912:
  9060                           
  9061                           ;isr.c: 6:     static unsigned long int count = 0;;isr.c: 7:     if(TMR2IF == 1)
  9062     142E  1283               	bcf	3,5	;RP0=0, select bank0
  9063     142F  1303               	bcf	3,6	;RP1=0, select bank0
  9064     1430  1C8C               	btfss	12,1	;volatile
  9065     1431  2C33               	goto	u347_21
  9066     1432  2C34               	goto	u347_20
  9067     1433                     u347_21:
  9068     1433  2C74               	goto	i1l135
  9069     1434                     u347_20:
  9070     1434                     i1l2914:
  9071                           
  9072                           ;isr.c: 8:     {;isr.c: 9:         if( ++count == 20000)
  9073     1434  3001               	movlw	1
  9074     1435  1683               	bsf	3,5	;RP0=1, select bank1
  9075     1436  1303               	bcf	3,6	;RP1=0, select bank1
  9076     1437  07D6               	addwf	isr@count^(0+128),f
  9077     1438  3000               	movlw	0
  9078     1439  1803               	skipnc
  9079     143A  3001               	movlw	1
  9080     143B  07D7               	addwf	(isr@count+1)^(0+128),f
  9081     143C  3000               	movlw	0
  9082     143D  1803               	skipnc
  9083     143E  3001               	movlw	1
  9084     143F  07D8               	addwf	(isr@count+2)^(0+128),f
  9085     1440  3000               	movlw	0
  9086     1441  1803               	skipnc
  9087     1442  3001               	movlw	1
  9088     1443  07D9               	addwf	(isr@count+3)^(0+128),f
  9089     1444  3020               	movlw	32
  9090     1445  0656               	xorwf	isr@count^(0+128),w
  9091     1446  304E               	movlw	78
  9092     1447  1903               	skipnz
  9093     1448  0657               	xorwf	(isr@count+1)^(0+128),w
  9094     1449  0458               	iorwf	(isr@count+2)^(0+128),w
  9095     144A  0459               	iorwf	(isr@count+3)^(0+128),w
  9096     144B  1D03               	btfss	3,2
  9097     144C  2C4E               	goto	u348_21
  9098     144D  2C4F               	goto	u348_20
  9099     144E                     u348_21:
  9100     144E  2C71               	goto	i1l2930
  9101     144F                     u348_20:
  9102     144F                     i1l2916:
  9103                           
  9104                           ;isr.c: 10:         {;isr.c: 11:             if(sec!=0)
  9105     144F  1283               	bcf	3,5	;RP0=0, select bank0
  9106     1450  1303               	bcf	3,6	;RP1=0, select bank0
  9107     1451  086C               	movf	_sec,w
  9108     1452  1903               	btfsc	3,2
  9109     1453  2C55               	goto	u349_21
  9110     1454  2C56               	goto	u349_20
  9111     1455                     u349_21:
  9112     1455  2C59               	goto	i1l2920
  9113     1456                     u349_20:
  9114     1456                     i1l2918:
  9115                           
  9116                           ;isr.c: 12:                 sec--;
  9117     1456  3001               	movlw	1
  9118     1457  02EC               	subwf	_sec,f
  9119     1458  2C67               	goto	i1l2928
  9120     1459                     i1l2920:
  9121     1459  086C               	movf	_sec,w
  9122     145A  1D03               	btfss	3,2
  9123     145B  2C5D               	goto	u350_21
  9124     145C  2C5E               	goto	u350_20
  9125     145D                     u350_21:
  9126     145D  2C67               	goto	i1l2928
  9127     145E                     u350_20:
  9128     145E                     i1l2922:
  9129     145E  086B               	movf	_min,w
  9130     145F  1903               	btfsc	3,2
  9131     1460  2C62               	goto	u351_21
  9132     1461  2C63               	goto	u351_20
  9133     1462                     u351_21:
  9134     1462  2C67               	goto	i1l2928
  9135     1463                     u351_20:
  9136     1463                     i1l2924:
  9137                           
  9138                           ;isr.c: 14:             {;isr.c: 15:                 min--;
  9139     1463  3001               	movlw	1
  9140     1464  02EB               	subwf	_min,f
  9141     1465                     i1l2926:
  9142                           
  9143                           ;isr.c: 16:                 sec = 60;
  9144     1465  303C               	movlw	60
  9145     1466  00EC               	movwf	_sec
  9146     1467                     i1l2928:
  9147                           
  9148                           ;isr.c: 18:             count = 0;
  9149     1467  3000               	movlw	0
  9150     1468  1683               	bsf	3,5	;RP0=1, select bank1
  9151     1469  1303               	bcf	3,6	;RP1=0, select bank1
  9152     146A  00D9               	movwf	(isr@count+3)^(0+128)
  9153     146B  3000               	movlw	0
  9154     146C  00D8               	movwf	(isr@count+2)^(0+128)
  9155     146D  3000               	movlw	0
  9156     146E  00D7               	movwf	(isr@count+1)^(0+128)
  9157     146F  3000               	movlw	0
  9158     1470  00D6               	movwf	isr@count^(0+128)
  9159     1471                     i1l2930:
  9160                           
  9161                           ;isr.c: 23:         TMR2IF = 0;
  9162     1471  1283               	bcf	3,5	;RP0=0, select bank0
  9163     1472  1303               	bcf	3,6	;RP1=0, select bank0
  9164     1473  108C               	bcf	12,1	;volatile
  9165     1474                     i1l135:
  9166     1474  0871               	movf	??_isr+1,w
  9167     1475  008A               	movwf	10
  9168     1476  0E70               	swapf	??_isr,w
  9169     1477  0083               	movwf	3
  9170     1478  0EFE               	swapf	btemp,f
  9171     1479  0E7E               	swapf	btemp,w
  9172     147A  0009               	retfie
  9173     147B                     __end_of_isr:
  9174     0002                     ___latbits      equ	2
  9175     007E                     btemp           set	126	;btemp
  9176     007E                     wtemp0          set	126
  9177                           
  9178                           	psect	intentry
  9179     0004                     __pintentry:	
  9180                           ;incstack = 0
  9181                           ; Regs used in _isr: [wreg+status,2+status,0]
  9182                           
  9183     0004                     interrupt_function:
  9184     007E                     saved_w         set	btemp
  9185     0004  00FE               	movwf	btemp
  9186     0005  0E03               	swapf	3,w
  9187     0006  00F0               	movwf	??_isr
  9188     0007  080A               	movf	10,w
  9189     0008  00F1               	movwf	??_isr+1
  9190     0009  160A  118A  2C2E   	ljmp	_isr
  9191                           
  9192                           	psect	config
  9193                           
  9194                           ;Config register CONFIG @ 0x2007
  9195                           ;	Oscillator Selection bits
  9196                           ;	FOSC = 0x3, unprogrammed default
  9197                           ;	Watchdog Timer Enable bit
  9198                           ;	WDTE = OFF, WDT disabled
  9199                           ;	Power-up Timer Enable bit
  9200                           ;	PWRTE = 0x1, unprogrammed default
  9201                           ;	Brown-out Reset Enable bit
  9202                           ;	BOREN = 0x1, unprogrammed default
  9203                           ;	Low-Voltage (Single-Supply) In-Circuit Serial Programming Enable bit
  9204                           ;	LVP = 0x1, unprogrammed default
  9205                           ;	Data EEPROM Memory Code Protection bit
  9206                           ;	CPD = 0x1, unprogrammed default
  9207                           ;	Flash Program Memory Write Enable bits
  9208                           ;	WRT = 0x3, unprogrammed default
  9209                           ;	In-Circuit Debugger Mode bit
  9210                           ;	DEBUG = 0x1, unprogrammed default
  9211                           ;	Flash Program Memory Code Protection bit
  9212                           ;	CP = 0x1, unprogrammed default
  9213     2007                     	org	8199
  9214     2007  3FFB               	dw	16379

Data Sizes:
    Strings     389
    Constant    0
    Data        38
    BSS         29
    Persistent  0
    Stack       0

Auto Spaces:
    Space          Size  Autos    Used
    COMMON           14      9      12
    BANK0            80     73      78
    BANK1            80      5      64
    BANK3            96      0       0
    BANK2            96      0       0

Pointer List with Targets:

    clcd_print@str	PTR const unsigned char  size(2) Largest target is 17
		 -> STR_1(CODE[14]), STR_10(CODE[7]), STR_11(CODE[11]), STR_12(CODE[11]), 
		 -> STR_13(CODE[8]), STR_14(CODE[11]), STR_15(CODE[10]), STR_16(CODE[9]), 
		 -> STR_17(CODE[10]), STR_18(CODE[11]), STR_19(CODE[5]), STR_2(CODE[9]), 
		 -> STR_20(CODE[4]), STR_21(CODE[7]), STR_22(CODE[5]), STR_23(CODE[4]), 
		 -> STR_24(CODE[12]), STR_25(CODE[16]), STR_26(CODE[16]), STR_27(CODE[13]), 
		 -> STR_28(CODE[5]), STR_29(CODE[5]), STR_3(CODE[16]), STR_30(CODE[10]), 
		 -> STR_31(CODE[5]), STR_32(CODE[10]), STR_33(CODE[10]), STR_34(CODE[6]), 
		 -> STR_35(CODE[7]), STR_36(CODE[6]), STR_37(CODE[7]), STR_38(CODE[6]), 
		 -> STR_39(CODE[7]), STR_4(CODE[13]), STR_40(CODE[6]), STR_41(CODE[17]), 
		 -> STR_42(CODE[14]), STR_43(CODE[13]), STR_44(CODE[15]), STR_45(CODE[10]), 
		 -> STR_46(CODE[5]), STR_47(CODE[10]), STR_48(CODE[10]), STR_5(CODE[11]), 
		 -> STR_6(CODE[10]), STR_7(CODE[6]), STR_8(CODE[6]), STR_9(CODE[10]), 

    washing_program	PTR unsigned char [12] size(2) Largest target is 11
		 -> STR_10(CODE[7]), STR_11(CODE[11]), STR_12(CODE[11]), STR_13(CODE[8]), 
		 -> STR_14(CODE[11]), STR_15(CODE[10]), STR_16(CODE[9]), STR_17(CODE[10]), 
		 -> STR_18(CODE[11]), STR_7(CODE[6]), STR_8(CODE[6]), STR_9(CODE[10]), 

    water_level	PTR unsigned char [5] size(2) Largest target is 7
		 -> STR_19(CODE[5]), STR_20(CODE[4]), STR_21(CODE[7]), STR_22(CODE[5]), 
		 -> STR_23(CODE[4]), 


Critical Paths under _main in COMMON

    _water_level_screen->_clcd_putch
    _washing_program_display->_clcd_putch
    _run_program->_clcd_putch
    _door_status_check->_clear_screen
    _clear_screen->_clcd_write
    ___xxtofl->___fltol
    ___xxtofl->___wmul
    ___flmul->___fltol
    _power_on_screen->_clcd_putch
    _clcd_putch->___awmod
    _clcd_print->___awmod
    _init_clcd->_init_display_controller
    _init_display_controller->_clcd_write

Critical Paths under _isr in COMMON

    None.

Critical Paths under _main in BANK0

    _main->_run_program
    _water_level_screen->_clcd_putch
    _washing_program_display->_clcd_putch
    _run_program->___flge
    _door_status_check->_clcd_print
    ___xxtofl->___fltol
    ___flsub->___flmul
    ___flmul->___xxtofl
    ___flge->___flsub
    _power_on_screen->_clcd_putch
    _clcd_putch->___awdiv

Critical Paths under _isr in BANK0

    None.

Critical Paths under _main in BANK1

    None.

Critical Paths under _isr in BANK1

    None.

Critical Paths under _main in BANK3

    None.

Critical Paths under _isr in BANK3

    None.

Critical Paths under _main in BANK2

    None.

Critical Paths under _isr in BANK2

    None.

Call Graph Tables:

 ---------------------------------------------------------------------------------
 (Depth) Function   	        Calls       Base Space   Used Autos Params    Refs
 ---------------------------------------------------------------------------------
 (0) _main                                                 5     5      0   13041
                                              0 BANK1      5     5      0
                         _clcd_print
                       _clear_screen
                        _init_config
                    _power_on_screen
                _read_digital_keypad
                        _run_program
                           _set_time
            _washing_program_display
                 _water_level_screen
 ---------------------------------------------------------------------------------
 (1) _water_level_screen                                   3     3      0    1313
                                              5 BANK0      3     3      0
                            ___awmod
                         _clcd_print
                         _clcd_putch
                       _clear_screen
 ---------------------------------------------------------------------------------
 (1) _washing_program_display                              3     3      0     860
                                              5 BANK0      3     3      0
                         _clcd_print
                         _clcd_putch
                       _clear_screen
 ---------------------------------------------------------------------------------
 (1) _set_time                                             0     0      0       0
 ---------------------------------------------------------------------------------
 (1) _run_program                                          9     9      0    8707
                                             64 BANK0      9     9      0
                            ___awdiv
                            ___awmod
                             ___flge
                            ___flmul
                            ___flsub
                            ___fltol
                             ___wmul
                           ___xxtofl
                         _clcd_print
                         _clcd_putch
                       _clear_screen
                  _door_status_check
 ---------------------------------------------------------------------------------
 (2) _door_status_check                                    0     0      0     582
                         _clcd_print
                       _clear_screen
 ---------------------------------------------------------------------------------
 (2) _clear_screen                                         2     2      0     111
                                              6 COMMON     2     2      0
                         _clcd_write
 ---------------------------------------------------------------------------------
 (2) ___xxtofl                                            14    10      4     519
                                              4 BANK0     14    10      4
                            ___fltol (ARG)
                             ___wmul (ARG)
 ---------------------------------------------------------------------------------
 (2) ___wmul                                               6     2      4       8
                                              2 COMMON     6     2      4
 ---------------------------------------------------------------------------------
 (2) ___fltol                                             10     6      4     346
                                              2 COMMON     6     2      4
                                              0 BANK0      4     4      0
 ---------------------------------------------------------------------------------
 (2) ___flsub                                              8     0      8    3043
                                             44 BANK0      8     0      8
                            ___fladd
                            ___flmul (ARG)
 ---------------------------------------------------------------------------------
 (3) ___fladd                                             20    12      8    2954
                                              2 COMMON     4     4      0
                                              0 BANK0     16     8      8
 ---------------------------------------------------------------------------------
 (2) ___flmul                                             26    18      8    2452
                                             18 BANK0     26    18      8
                          __Umul8_16
                            ___fltol (ARG)
                           ___xxtofl (ARG)
 ---------------------------------------------------------------------------------
 (3) __Umul8_16                                            9     7      2     232
                                              2 COMMON     4     2      2
                                              0 BANK0      5     5      0
 ---------------------------------------------------------------------------------
 (2) ___flge                                              12     4      8     284
                                             52 BANK0     12     4      8
                            ___flmul (ARG)
                            ___flsub (ARG)
 ---------------------------------------------------------------------------------
 (2) ___awmod                                              6     2      4     453
                                              2 COMMON     6     2      4
 ---------------------------------------------------------------------------------
 (2) ___awdiv                                              8     4      4      90
                                              2 COMMON     4     0      4
                                              0 BANK0      4     4      0
 ---------------------------------------------------------------------------------
 (1) _read_digital_keypad                                  2     2      0     130
                                              2 COMMON     1     1      0
 ---------------------------------------------------------------------------------
 (1) _power_on_screen                                      5     5      0     900
                                              5 BANK0      5     5      0
                         _clcd_print
                         _clcd_putch
 ---------------------------------------------------------------------------------
 (2) _clcd_putch                                           2     1      1     231
                                              8 COMMON     1     0      1
                                              4 BANK0      1     1      0
                            ___awdiv (ARG)
                            ___awmod (ARG)
                         _clcd_write
 ---------------------------------------------------------------------------------
 (2) _clcd_print                                           3     0      3     471
                                              0 BANK0      3     0      3
                            ___awmod (ARG)
                         _clcd_write
 ---------------------------------------------------------------------------------
 (1) _init_config                                          0     0      0     111
                          _init_clcd
                _init_digital_keypad
                        _init_timer2
 ---------------------------------------------------------------------------------
 (2) _init_timer2                                          0     0      0       0
 ---------------------------------------------------------------------------------
 (2) _init_digital_keypad                                  0     0      0       0
 ---------------------------------------------------------------------------------
 (2) _init_clcd                                            0     0      0     111
            _init_display_controller
 ---------------------------------------------------------------------------------
 (3) _init_display_controller                              2     2      0     111
                                              6 COMMON     2     2      0
                         _clcd_write
 ---------------------------------------------------------------------------------
 (3) _clcd_write                                           4     3      1     111
                                              2 COMMON     4     3      1
 ---------------------------------------------------------------------------------
 Estimated maximum stack depth 3
 ---------------------------------------------------------------------------------
 (Depth) Function   	        Calls       Base Space   Used Autos Params    Refs
 ---------------------------------------------------------------------------------
 (5) _isr                                                  2     2      0       0
                                              0 COMMON     2     2      0
 ---------------------------------------------------------------------------------
 Estimated maximum stack depth 5
 ---------------------------------------------------------------------------------

 Call Graph Graphs:

 _main (ROOT)
   _clcd_print
     ___awmod (ARG)
     _clcd_write (ARG)
   _clear_screen
     _clcd_write
   _init_config
     _init_clcd
       _init_display_controller
         _clcd_write
     _init_digital_keypad
     _init_timer2
   _power_on_screen
     _clcd_print
     _clcd_putch
       ___awdiv (ARG)
       ___awmod (ARG)
       _clcd_write (ARG)
   _read_digital_keypad
   _run_program
     ___awdiv
     ___awmod
     ___flge
       ___flmul (ARG)
         __Umul8_16
         ___fltol (ARG)
         ___xxtofl (ARG)
           ___fltol (ARG)
           ___wmul (ARG)
       ___flsub (ARG)
         ___fladd
         ___flmul (ARG)
     ___flmul
     ___flsub
     ___fltol
     ___wmul
     ___xxtofl
     _clcd_print
     _clcd_putch
     _clear_screen
     _door_status_check
       _clcd_print
       _clear_screen
   _set_time
   _washing_program_display
     _clcd_print
     _clcd_putch
     _clear_screen
   _water_level_screen
     ___awmod
     _clcd_print
     _clcd_putch
     _clear_screen

 _isr (ROOT)

Address spaces:
Name               Size   Autos  Total    Usage
BANK3               96      0       0      0.0%
BITBANK3            96      0       0      0.0%
BANK2               96      0       0      0.0%
BITBANK2            96      0       0      0.0%
BANK1               80      5      64     80.0%
BITBANK1            80      0       0      0.0%
BANK0               80     73      78     97.5%
BITBANK0            80      0       0      0.0%
COMMON              14      9      12     85.7%
BITCOMMON           14      0       0      0.0%
DATA                 0      0     153      0.0%
STACK                0      0       0      0.0%


Microchip Technology PIC Macro Assembler V3.00 build 20241204225717 
Symbol Table                                                                                   Wed Jun 18 20:01:10 2025

                              pc 0002                   clcd_print@addr 0022                               l43 081B  
                             l65 0B6D                               l91 1399                               l59 0B25  
                             l94 1525                               l97 1340                     ___awdiv@sign 0021  
                             fsr 0004              ___wmul@multiplicand 0074              __Umul8_16@word_mpld 0022  
                            l100 1379                              l106 07F0                              l212 16BC  
                            l117 07FE                              l142 132D                              l223 0A4A  
                            l312 0C21                              l305 0C09                              l322 0C3D  
                            l155 14CE                              l315 0C25                              l156 14CD  
                            l229 175B                              l247 0565                              l352 160A  
                            l280 0BC5                              l345 0C80                              l329 0C52  
                            l610 157C                              l354 1610                              l290 0BDB  
                            l282 0BC5                              l355 164C                              l444 13EC  
                            l348 0CBD                              l630 17FF                              l622 177A  
                            l446 1404                              l358 1351                              l288 0BDB  
                            l625 17E6                              l298 0BF4                              l740 0592  
                            l645 087C                              l638 0891                              l751 061D  
                            l648 0891                              l841 0FFF                              l745 05C3  
                            l770 0734                              l860 141B                              l597 15E1  
                            l853 0FF5                              l749 0644                              l862 142D  
                            l766 0710                              l758 07BD                              l847 0F71  
                            l791 13DF                              l776 0757                              l787 07B3  
                            l779 0793                              l891 08F5                              l788 07BD  
                            l885 08B6                              l886 08C7                              l887 0947  
                            l898 0911                              l899 091D                              _GIE 005F  
                            _RB0 0030                              _RC1 0039                              _RC2 003A  
                            _RE1 0049                              _RE2 004A                              _PR2 0092  
                            _min 006B                              _sec 006C                              _isr 142E  
                 clcd_putch@addr 0078                              fsr0 0004                   clcd_putch@data 0024  
                            indf 0000                     ___awmod@sign 0077                     ___flmul@aexp 0040  
                   ___flmul@bexp 0045                     ___flmul@sign 003F                     ___flmul@temp 004A  
                   ___flmul@prod 0046                      _run_program 0045                     ___fltol@exp1 0077  
                           l3000 059D                             l3010 05B0                             l3002 05A1  
                           l3100 06E9                             l3020 05CD                             l3012 05B8  
                           l3004 05A5                             l3110 0718                             l3102 06EB  
                           l3030 05D7                             l3022 05CF                             l3014 05B9  
                           l3006 05A6                             l3120 0733                             l3112 071D  
                           l3104 06EE                             l3040 05E1                             l3032 05D9  
                           l3024 05D1                             l3008 05AB                             l3016 05BB  
                           l3200 15E8            ??_read_digital_keypad 0072                             l3122 0738  
                           l3130 0745                             l3106 06F3                             l3050 05EB  
                           l3042 05E3                             l3034 05DB                             l3026 05D3  
                           l3018 05C9                             l3210 1618                             l3202 15EB  
                           l3300 155B                             l3124 073C                             l3116 0726  
                           l3108 0702                             l3132 0749                             l3060 062A  
                           l3044 05E5                             l3036 05DD                             l3028 05D5  
                           l3052 05ED                             l3220 13E2                             l3212 1625  
                           l3204 15F0                             l4100 011D                             l4030 1584  
                           l3310 1578                             l3302 1561                             l3150 0791  
                           l3142 075C                             l3134 074A                             l3126 073E  
                           l3118 072F                             l3062 062C                             l3070 063E  
                           l3054 05EE                             l3046 05E7                             l3038 05DF  
                           l3222 13E6                             l3214 1632                             l3206 15FD  
                           l4110 01E0                             l4102 012A                             l4040 1596  
                           l4032 1589                             l3304 1568                             l3320 1796  
                           l3400 0CF0                             l3160 07AB                             l3152 0798  
                           l3144 0761                             l3136 074E                             l3128 0743  
                           l3080 0671                             l3072 0648                             l3064 0632  
                           l3056 0605                             l3048 05E9                             l3224 13F3  
                           l3216 163F                             l3208 1613                             l4120 028E  
                           l4112 0231                             l4104 0137                             l4200 0A9C  
                           l4050 15AA                             l4042 1598                             l4034 158B  
                           l4026 157D                             l3306 156E                             l3330 17FE  
                           l3322 179A                             l3314 175C                             l3170 1408  
                           l3410 0D07                             l3402 0CF4                             l3162 07AF  
                           l3154 079D                             l3146 076F                             l3138 0754  
                           l3090 0686                             l3082 0675                             l3074 064D  
                           l3066 0633                             l3058 0621                             l3226 13FA  
                           l3218 13E0                             l4130 0349                             l4122 0292  
                           l4114 0282                             l4106 0144                             l4210 0AC1  
                           l4202 0AA1                             l4060 15CD                             l4052 15AE  
                           l4044 159E                             l4036 158F                             l4028 1580  
                           l3308 1573                             l3324 17BE                             l3316 1772  
                           l3180 1429                             l3172 140A                             l3500 0FC4  
                           l3412 0D09                             l3404 0CF5                             l3164 07B1  
                           l3156 07A5                             l3148 0773                             l3092 0687  
                           l3084 0679                             l3068 063C                             l3340 082E  
                           l3228 1400                             l4140 0471                             l4132 03D8  
                           l4124 02D3                             l4116 0285                             l4108 018F  
                           l4220 0ADE                             l4212 0AC8                             l4204 0AAA  
                           l3190 133B                             l4054 15BF                             l4046 15A1  
                           l4062 15D3                             l4038 1594                             l3326 17C2  
                           l3318 178E                             l3174 1411                             l3510 0FEF  
                           l3502 0FD3                             l3430 0D76                             l3422 0D24  
                           l3414 0D11                             l3406 0CFA                             l3166 07B8  
                           l3158 07AA                             l3094 0690                             l3086 0680  
                           l3078 0658                             l3350 0852                             l3342 0843  
                           l3334 081C                             l4142 047F                             l4134 03E6  
                           l4150 04AA                             l4126 02DB                             l4118 0286  
                           l4070 0048                             l4222 0AE3                             l4230 0B10  
                           l4214 0ACD                             l4206 0AAE                             l3184 1336  
                           l3192 1328                             l3600 14AA                             l4064 15D8  
                           l4056 15C5                             l4048 15A8                             l3280 152B  
                           l3328 17FC                             l3176 1415                             l3512 0FF0  
                           l3504 0FDD                             l3440 0DEF                             l3432 0DA0  
                           l3424 0D32                             l3416 0D16                             l3408 0CFF  
                           l3168 07BC                             l3088 0682                             l3096 0693  
                           l3344 0844                             l3336 0825                             l3520 089A  
                           l4160 051E                             l4152 04C5                             l4144 048D  
                           l4128 033B                             l4136 03F4                             l4080 007A  
                           l4072 004D                             l4240 0B38                             l4232 0B18  
                           l4224 0AF0                             l4216 0AD4                             l4208 0ABC  
                           l3186 1339                             l3194 07F1                             l3610 14C3  
                           l3602 14AF                             l4066 15DD                             l4058 15C6  
                           l3290 1541                             l3282 1530                             l3178 1424  
                           l3514 0FF7                             l3506 0FDF                             l3450 0E6B  
                           l3442 0E0C                             l3434 0DBC                             l3426 0D3F  
                           l3418 0D1B                             l3098 06AB                             l3370 13BC  
                           l3346 084C                             l3530 08CA                             l3522 089E  
                           l4170 0533                             l4162 0525                             l4154 04E0  
                           l4146 0493                             l4138 03FA                             l4090 00E0  
                           l4082 0087                             l4074 0053                             l4242 0B40  
                           l4234 0B20                             l4226 0AFD                             l4218 0ADC  
                           l3188 133A                             l3196 1368                             l3612 14C9  
                           l3604 14B5                             l3292 1544                             l3284 1532  
                           l3276 1526                             l3508 0FEB                             l3460 0F1D  
                           l3452 0E96                             l3444 0E1A                             l3436 0DD8  
                           l3428 0D5A                             l3380 0CC4                             l3372 13C0  
                           l3364 0871                             l3356 085A                             l3348 084E  
                           l3540 08FC                             l3532 08D5                             l3524 08AE  
                           l4180 055E                             l4172 053E                             l4164 052A  
                           l4156 04E8                             l4148 049F                             l4092 00FB  
                           l4084 00A2                             l4076 0058                             l4244 0B47  
                           l4236 0B26                             l4228 0B0A                             l4252 0B5D  
                           l3630 1659                             l3622 164D                             l3614 14CB  
                           l3606 14B8                             l3294 154B                             l3286 1536  
                           l3278 1527                             l3470 0F42                             l3462 0F26  
                           l3454 0EA4                             l3446 0E37                             l3438 0DE1  
                           l3390 0CD7                             l3382 0CC8                             l3366 0881  
                           l3358 086A                             l3550 0935                             l3542 0907  
                           l3534 08DC                             l3526 08BE                             l3518 0895  
                           l3198 15E2                             l4182 0560                             l4174 054B  
                           l4166 052F                             l4158 0503                             l4094 00FD  
                           l4086 00BD                             l4078 0065                             l3710 0BF2  
                           l3702 0BCA                             l4246 0B4D                             l4238 0B2F  
                           l4190 0A6A                             l3560 0802                             l3632 1667  
                           l3608 14BD                             l3296 154D                             l3288 153B  
                           l3480 0F5A                             l3472 0F4B                             l3464 0F34  
                           l3456 0ECF                             l3448 0E4E                             l3392 0CDF  
                           l3384 0CCC                             l3376 0CBE                             l3368 0886  
                           l3552 093A                             l3544 090B                             l3536 08DE  
                           l4176 0559                             l4168 0532                             l4096 010B  
                           l4088 00C5                             l3720 0C0A                             l3712 0BF5  
                           l3800 0970                             l4248 0B54                             l4192 0A78  
                           l4184 0A4B                             l3570 0816                             l3562 080C  
                           l3650 16A7                             l3634 166B                             l3618 14CD  
                           l3298 1551                             l3490 0F89                             l3482 0F6E  
                           l3466 0F3D                             l3474 0F51                             l3458 0EF5  
                           l3394 0CE1                             l3386 0CCD                             l3378 0CC2  
                           l3554 093E                             l3546 0915                             l3538 08EC  
                           l4178 055C                             l4098 0110                             l3730 0C22  
                           l3706 0BE0                             l3810 09CF                             l3802 097B  
                           l4194 0A7E                             l4186 0A50                             l2932 137B  
                           l3572 0817                             l3564 0811                             l2940 07BE  
                           l3652 16AD                             l3644 168C                             l3636 1671  
                           l3628 1650                             l3580 1481                             l3492 0F8D  
                           l3476 0F55                             l3468 0F41                             l3396 0CE9  
                           l3388 0CD2                             l3556 093F                             l3548 091F  
                           l3740 0C3B                             l3732 0C27                             l3724 0C0D  
                           l3716 0BF8                             l3708 0BF1                             l3660 0B76  
                           l3812 0A0B                             l3804 0983                             l3820 16CB  
                           l4196 0A8C                             l4188 0A5D                             l2934 1385  
                           l3574 081A                             l3566 0812                             l2942 07C8  
                           l3646 1695                             l3638 1689                             l3590 1499  
                           l3582 1487                             l3494 0FA6                             l3486 0F76  
                           l3478 0F56                             l3398 0CEC                             l2950 1348  
                           l3750 0C53                             l3742 0C3E                             l3726 0C1E  
                           l3718 0C09                             l3670 0B7E                             l3662 0B77  
                           l3654 0B71                             l3814 0A11                             l3806 098B  
                           l3830 16E4                             l3822 16CD                             l4198 0A97  
                           l2936 1387                             l2960 14F3                             l2952 14CF  
                           l3568 0813                             l2944 07D8                             l3648 16A3  
                           l3592 149E                             l3584 148C                             l3576 147B  
                           l3488 0F7B                             l3496 0FAC                             l3760 0C6B  
                           l3736 0C29                             l3728 0C1F                             l3680 0B97  
                           l3672 0B8F                             l3664 0B7A                             l3656 0B72  
                           l3808 09C9                             l3840 1734                             l3824 16D5  
                           l3832 16E5                             l3816 16C0                             l2938 138D  
                           l2970 1519                             l2962 14FA                             l2954 14D7  
                           l2946 07E0                             l3594 14A0                             l3586 148E  
                           l3578 147F                             l3498 0FB9                             l3770 0C6F  
                           l3762 0C6C                             l3754 0C56                             l3746 0C41  
                           l3738 0C3A                             l3690 0BAD                             l3682 0B98  
                           l3674 0B90                             l3666 0B7B                             l3658 0B73  
                           l3834 16F0                             l3826 16DA                             l3818 16C6  
                           l2964 14FD                             l2956 14DE                             l3596 14A6  
                           l3588 1493                             l2980 0574                             l2972 0566  
                           l2948 1341                             l3772 0C80                             l3756 0C67  
                           l3748 0C52                             l3692 0BB0                             l3676 0B93  
                           l3836 16F8                             l3828 16DE                             l2966 1504  
                           l2958 14EE                             l2990 0588                             l2982 0575  
                           l2974 056A                             l3774 0C81                             l3758 0C68  
                           l3694 0BB1                             l3686 0B9B                             l3678 0B94  
                           l3782 0C95                             l3790 0958                             l3838 170D  
                           l2968 1510                             l2984 057A                             l2992 058A  
                           l2976 056C                             l3688 0BAC                             l3792 0960  
                           l3784 094B                             l2994 0594                             l2986 057F  
                           l2978 0570                             l3778 0C84                             l3698 0BB4  
                           l3794 0965                             l3786 0951                             l2996 0596  
                           l2988 0587                             l3796 0969                             l3788 0956  
                           l2998 059C                             l3798 096F                             ?_isr 0070  
                           STR_1 105E                             STR_2 1125                             STR_3 1031  
                           STR_4 1086                             STR_5 10CB                             STR_6 1112  
                           STR_7 115D                             STR_8 1163                             STR_9 10F4  
                           u4000 07BC                             u4001 07BB                             u4010 1415  
                           u4011 1414                             u4030 1429                             u4031 1428  
                           u5000 149E                             u4200 152B                             u4040 15E8  
                           u5001 149D                             u4201 152A                             u4025 141C  
                           u4041 15E7                             u5010 14A6                             u4210 1536  
                           u4050 1610                             u5011 14A5                             u4211 1535  
                           u4051 160F                             u5020 14AF                             u4220 1541  
                           u4300 178E                             u4060 13E6                             u5100 0960  
                           u5021 14AE                             u4221 1540                             u4301 178D  
                           u4061 13E5                             u5101 095F                             u5030 14B5  
                           u4310 179A                             u5110 096F                             u5031 14B4  
                           u4311 1799                             u5111 096E                             u3520 1382  
                           u5040 14BD                             u4240 1551                             u3600 05AB  
                           u5120 098B                             u3521 137E                             u5041 14BC  
                           u4241 1550                             u4321 17A9                             u3601 05AA  
                           u5121 098A                             u5050 14C3                             u4250 155B  
                           u4330 17C2                             u4322 17AA                             u3610 05B0  
                           u4410 0869                             u4090 1400                             u5130 09CF  
                           u5051 14C2                             u4251 155A                             u4235 1545  
                           u4331 17C1                             u4323 17AF                             u3611 05AF  
                           u4411 0868                             u4091 13FF                             u4075 13ED  
                           u5131 09CE                             u3540 07F0                             u5060 14C9  
                           u4324 17B0                             u4500 0CFA                             u3700 0644  
                           u3620 05C9                             u4420 0870                             u5140 0A11  
                           u3541 07EF                             u5061 14C8                             u4341 17D1  
                           u4325 17B5                             u4501 0CF9                             u3701 0643  
                           u3621 05C8                             u4421 086F                             u4405 085B  
                           u4085 13F4                             u5141 0A10                             u3534 1385  
                           u5070 1671                             u4270 156E                             u4350 17FC  
                           u4342 17D2                             u4326 17B6                             u4510 0CFF  
                           u3710 0648                             u3630 05CD                             u3550 0574  
                           u5150 16C6                             u5071 1670                             u4271 156D  
                           u4255 1557                             u4351 17FB                             u4343 17D7  
                           u4511 0CFE                             u3711 0647                             u3631 05CC  
                           u3551 0573                             u5151 16C5                             u5080 16AD  
                           u5400 158F                             u4280 1573                             u4344 17D8  
                           u4520 0D16                             u3800 06D6                             u3720 064D  
                           u3640 0605                             u3560 057A                             u4440 0881  
                           u4360 0825                             u5160 16D5                             u5081 16AC  
                           u5401 158E                             u4281 1572                             u4265 1562  
                           u4345 17DD                             u4601 0E29                             u4521 0D15  
                           u3801 06D7                             u3721 064C                             u3641 0604  
                           u3561 0579                             u4441 0880                             u4361 0824  
                           u5161 16D4                             u5410 159E                             u4346 17DE  
                           u4290 1772                             u4602 0E30                             u4530 0D1B  
                           u3810 06F3                             u3802 06DC                             u3650 0610  
                           u3570 057F                             u4450 0886                             u4370 083E  
                           u5090 0951                             u5170 16E4                             u5411 159D  
                           u4355 17F8                             u4291 1771                             u4603 0E37  
                           u4531 0D1A                             u3811 06F2                             u3803 06DD  
                           u3731 0663                             u3651 060E                             u3571 057E  
                           u4451 0885                             u4435 0873                             u5091 0950  
                           u5171 16E3                             _PEIE 005E                             u4460 0CCC  
                           u3900 0754                             u3820 0718                             u3740 0675  
                           u3732 066A                             u3660 0611                             u3580 059C  
                           u4380 0852                             u5500 028E                             u4621 0E5D  
                           u4541 0D68                             u4461 0CCB                             u3901 0753  
                           u3821 0717                             u3741 0674                             u3733 0671  
                           u3645 0601                             u3581 059B                             u4381 0851  
                           u5501 028D                             u5430 15AE                             u4710 0F41  
                           u4622 0E64                             u4542 0D6F                             u4470 0CD2  
                           u3910 075B                             u3830 071D                             u3750 0679  
                           u3670 0621                             u3590 05A5                             u4390 0859  
                           u5510 02DB                             u5431 15AD                             u4711 0F40  
                           u4631 0E88                             u4623 0E6B                             u4615 0E39  
                           u4551 0D84                             u4543 0D76                             u4471 0CD1  
                           u3911 075A                             u3831 071C                             u3751 0678  
                           u3671 0620                             u3591 05A4                             u4391 0858  
                           u4375 0839                             u5511 02DA                             u4800 0FB9  
                           u4632 0E8F                             u4552 0D8B                             u4480 0CD7  
                           u3920 0761                             u3760 0686                             u3680 0632  
                           u5520 033B                             u5600 0A97                             u5425 15A2  
                           u4801 0FB8                             u4705 0F36                             u4641 0EB3  
                           u4633 0E96                             u4561 0DAE                             u4553 0D92  
                           u4481 0CD6                             u3921 0760                             u3761 0685  
                           u3681 0631                             u5521 033A                             u5601 0A96  
                           u5450 15BF                             u4810 0FD3                             u4730 0F55  
                           u4650 0EDB                             u4642 0EBA                             u4562 0DB5  
                           u4490 0CF4                             u3930 0773                             u3850 0733  
                           u5530 03D8                             u5610 0ABC                             u5451 15BE  
                           u4811 0FD2                             u4731 0F54                             u4643 0EC1  
                           u4571 0DCA                             u4563 0DBC                             u4491 0CF3  
                           u3931 0772                             u3851 0732                             u5531 03D7  
                           u5611 0ABB                             u4820 0FEF                             u4740 0F5A  
                           u4572 0DD1                             u3940 0782                             u3860 0738  
                           u3780 06AB                             u5540 03FA                             u5620 0AC1  
                           u5445 15AF                             u4821 0FEE                             u4805 0FB5  
                           u4741 0F59                             u4725 0F44                             u4661 0EE7  
                           u4573 0DD8                             u3861 0737                             u3845 0728  
                           u3781 06AA                             u5541 03F9                             u5621 0AC0  
                           u5470 15D3                             u5390 1584                             u4750 0F6E  
                           u4670 0F03                             u4662 0EEE                             u3950 0791  
                           u3870 0743                             u4910 090B                             u4830 089A  
                           u5550 0471                             u5630 0AC8                             u5471 15D2  
                           u5455 15BB                             u5391 1583                             u4815 0FCF  
                           u4751 0F6D                             u4663 0EF5                             u4655 0ED6  
                           u4591 0DFE                             u3951 0790                             u3871 0742  
                           u3791 06C2                             u3783 06A7                             u3775 0689  
                           u3695 0635                             u4911 090A                             u4831 0899  
                           u5551 0470                             u5631 0AC7                             u5480 15D8  
                           u4760 0F75                             u4592 0E05                             u3960 0798  
                           u3880 0749                             u3792 06C3                             u4920 0911  
                           u4840 089E                             u5560 0493                             u5640 0AD4  
                           u5481 15D7                             u5465 15C7                             u4761 0F74  
                           u4681 0F0F                             u4593 0E0C                             u4585 0DDA  
                           u3961 0797                             u3945 077D                             u3881 0748  
                           u3793 06C8                             u4921 0910                             u4905 0900  
                           u4841 089D                             u5561 0492                             u5641 0AD3  
                           u4770 0F7B                             u4682 0F16                             u3970 079D  
                           u3890 074E                             u3794 06C9                             u4930 0915  
                           u4850 08BE                             u5570 0525                             u5490 0053  
                           u5650 0ADC                             u4771 0F7A                             u4683 0F1D  
                           u4675 0EFE                             u3971 079C                             u3891 074D  
                           u3795 06CE                             u4931 0914                             u4851 08BD  
                           u5571 0524                             u5707 0105                             u5491 0052  
                           u5651 0ADB                             u4780 0F8D                             u3980 07AA  
                           u3796 06CF                             u4940 092A                             u5580 052A  
                           u5660 0B18                             u4781 0F8C                             u3981 07A9  
                           u5717 0553                             u5581 0529                             u5661 0B17  
                           u4790 0F9C                             u3990 07AF                             u4950 093A  
                           u4870 08DB                             u5670 0B20                             u5590 0A8C  
                           u5807 1514                             u4695 0F1F                             u3991 07AE  
                           u4951 0939                             u4871 08DA                             u5727 134C  
                           u5671 0B1F                             u5591 0A8B                             u4960 093E  
                           u5680 0B40                             u5817 1522                             u5737 1661  
                           u4961 093D                             u4945 0925                             u4865 08CD  
                           u5681 0B3F                             u4970 1487                             u4890 08FB  
                           u5690 0B4D                             u5827 138A                             u5747 169D  
                           u4971 1486                             u4795 0F97                             u4891 08FA  
                           u5691 0B4C                             u4980 148C                             u5837 1394  
                           u5757 16B5                             u4981 148B                             u4885 08ED  
                           u4990 1499                             u5767 14D3                             u4991 1498  
                           u5777 14E2                             u5787 14F0                             u5797 1506  
  read_digital_keypad@long_press 0079                             _main 0A4B                             _time 00C2  
                           btemp 007E                             start 000C                   clcd_write@byte 0075  
                 clcd_write@mode 0072                     main@delay_93 00DD          __end_of_power_on_screen 16BD  
      ??_washing_program_display 0025                            ??_isr 0070                    ___fltol@sign1 0076  
                __end_of___fladd 07BE                            ?_main 0070                  __end_of___awdiv 15E2  
                          STR_10 1144                            STR_11 10AA                            STR_20 117D  
                          STR_12 10B5                            STR_21 113D                            STR_13 112E  
                          STR_30 10D6                            STR_22 1173                            STR_14 10C0  
                          STR_31 1169                            STR_23 1181                            STR_15 1108  
                          STR_40 1151                            STR_32 10EA                            STR_24 1093  
                          STR_16 111C                            STR_33 10E0                            STR_25 1011  
                          STR_41 1000                            STR_17 10FE                            STR_34 114B  
                          STR_42 1050                            STR_26 1021                            STR_18 109F  
                          STR_35 1136                            STR_43 1079                            STR_27 106C  
                          STR_19 1178                            STR_28 116E                            STR_36 1157  
                          STR_44 1041                  __end_of___awmod 157D                            STR_37 1136  
                          STR_45 10D6                            STR_29 1169                            STR_38 1157  
                          STR_46 1169                            STR_39 1136                            STR_47 10EA  
                          STR_48 10E0                  __end_of___flmul 1000                  __end_of___flsub 13E0  
                __end_of___fltol 0892                  ___awdiv@divisor 0072                            i1l135 1474  
                   ?_init_config 0070                  ___awdiv@counter 0020                            _PORTB 0006  
                          _PORTD 0008                            _TRISB 0086                            _TRISD 0088  
                   ?_init_timer2 0070             __end_of_clear_screen 1352                            _level 0069  
                          pclath 000A                            status 0003                            wtemp0 007E  
                __initialization 000F                     __end_of_main 0B71                           ??_main 0079  
                 run_program@key 0064  __end_of_washing_program_display 0A4B                 ___awdiv@dividend 0074  
                         i1l2920 1459                           i1l2912 142E                           i1l2922 145E  
                         i1l2930 1471                           i1l2914 1434                           i1l2924 1463  
                         i1l2916 144F                           i1l2926 1465                           i1l2918 1456  
                         i1l2928 1467                           u350_20 145E                           u350_21 145D  
                         u351_20 1463                           u351_21 1462                           u347_20 1434  
                         u347_21 1433                           u348_20 144F                           u348_21 144E  
                         u349_20 1456                           u349_21 1455                           _TMR2IE 0461  
                         _TMR2IF 0061                           _TMR2ON 0092                           _TRISC1 0439  
                         _TRISC2 043A                           _TRISE1 0449                           _TRISE2 044A  
               __end_of___xxtofl 0948      __end_of_init_digital_keypad 132E                           ___flge 175C  
        _init_display_controller 14CF                        ??___fladd 0028                           ___wmul 13E0  
                      ??___awdiv 0076                 ?_power_on_screen 0070                        ??___awmod 0076  
                      ??___flmul 003A                        ??___flsub 0078                        ??___fltol 0020  
               ___awdiv@quotient 0022                  ___awmod@divisor 0072                  ___awmod@counter 0076  
                   __pdataCOMMON 0079                 __end_of_set_time 0CBE                           saved_w 007E  
                     ___flge@ff1 0054                       ___flge@ff2 0058                     ___xxtofl@arg 002E  
                   ___xxtofl@exp 002D                     ___xxtofl@val 0024          __end_of__initialization 0041  
                     ___fltol@f1 0072                   __pcstackCOMMON 0070                     __pidataBANK0 07FF  
                   __pidataBANK1 139A                     ?_run_program 0070                       __pbssBANK0 0069  
                     __pbssBANK1 00C2        ??_init_display_controller 0076                       _clcd_print 07BE  
                     _clcd_putch 1365                       _clcd_write 137A                __end_of__Umul8_16 142E  
                     __pmaintext 0A4B                     _clear_screen 1341                          ?___flge 0054  
                        ?___wmul 0072                       __pintentry 0004      __end_of_read_digital_keypad 14CF  
                      ?___xxtofl 0024                       __stringtab 1185                        ?_set_time 0070  
                        ___fladd 0566                          ___awdiv 157D                          ___awmod 1526  
                        ___flmul 0CBE                          ___flsub 13BC                          ___fltol 081C  
                        __ptext1 16BD                          __ptext2 0948                          __ptext3 0B71  
                        __ptext4 0045                          __ptext5 15E2                          __ptext6 1341  
                        __ptext7 0892                          __ptext8 13E0                          __ptext9 081C  
__end_of_init_display_controller 1526                __end_of_init_clcd 1341           read_digital_keypad@key 0072  
                     ??___xxtofl 0028                 ___awmod@dividend 0074                          main@key 00DF  
                        clrloop0 132F             end_of_initialization 0041                      ?_clcd_print 0020  
                    ?_clcd_putch 0078                      ?_clcd_write 0072         ?_washing_program_display 0070  
                     _reset_flag 007B                       ??_set_time 0072                     __pstringtext 1000  
                     _rinse_time 00CA                      ___fladd@grs 0075       washing_program_display@key 0027  
                     _program_no 006A                    ___xxtofl@sign 002C                    clcd_print@str 0020  
                    ___flmul@grs 0041                       _total_time 00D2                   __end_of___flge 1800  
                 __end_of___wmul 1405                    __pidataCOMMON 1325              start_initialization 000F  
                    __end_of_isr 147B            water_level_screen@key 0027                         ??___flge 005C  
                       ??___wmul 0076                  _run_program$838 0065                       init_fetch0 1352  
                      __Umul8_16 1405       __end_of_water_level_screen 175C                      __pdataBANK0 006D  
                    __pdataBANK1 00A0       read_digital_keypad@pre_key 00DA                    ??_init_config 0078  
                      ___fladd@a 0024                        ___fladd@b 0020                    ??_init_timer2 0072  
                      ___flmul@a 0036                        ___flmul@b 0032                        ___flsub@a 004C  
                      ___flsub@b 0050                        ___latbits 0002                    __pcstackBANK0 0020  
                  __pcstackBANK1 00DB             power_on_screen@i_194 0029                         ?___fladd 0020  
                       ?___awdiv 0072                         ?___awmod 0072                         ?___flmul 0032  
                       ?___flsub 004C                         ?___fltol 0072                       ?__Umul8_16 0072  
                      __pstrings 1185                        _init_clcd 1336              __end_of_init_config 081C  
              ??_power_on_screen 0025              __end_of_init_timer2 07FF                  _washing_program 00A0  
       ?_init_display_controller 0070                interrupt_function 0004                   ___wmul@product 0076  
                      clear_ram0 132E                     ??_clcd_print 0078                     ??_clcd_putch 0079  
                   ??_clcd_write 0073                        _wash_time 00CE                        _spin_time 00C6  
                    __stringbase 1197                ___wmul@multiplier 0072                        main@delay 00DB  
             __end_of_clcd_print 07F1               __end_of_clcd_putch 137A               __end_of_clcd_write 139A  
                     ?_init_clcd 0070              _init_digital_keypad 1328                      ??__Umul8_16 0074  
           ?_init_digital_keypad 0070               __end_of__stringtab 1197                      _init_config 0802  
                       ___xxtofl 0892                 _operational_mode 006D                      _init_timer2 07F1  
                  ??_run_program 0060                         __ptext10 13BC                         __ptext11 0566  
                       __ptext20 07BE                         __ptext12 0CBE                         __ptext21 0802  
                       __ptext13 1405                         __ptext22 07F1                         __ptext14 175C  
                       __ptext23 1328                         __ptext15 1526                         __ptext24 1336  
                       __ptext16 157D                         __ptext25 14CF                         __ptext17 147B  
                       __ptext26 137A                         __ptext18 164D                         __ptext27 142E  
                       __ptext19 1365          read_digital_keypad@mode 0070          read_digital_keypad@once 007A  
                  ?_clear_screen 0070                         _set_time 0B71            ??_init_digital_keypad 0072  
              _door_status_check 15E2               ?_door_status_check 0070                         isr@count 00D6  
            ??_door_status_check 0078                         init_ram0 1356               _water_level_screen 16BD  
                    ??_init_clcd 0078                         intlevel1 0000              ?_water_level_screen 0070  
            __end_of_run_program 0566                        stringcode 118F                   ??_clear_screen 0076  
      __end_of_door_status_check 164D              _read_digital_keypad 147B             ??_water_level_screen 0025  
        _washing_program_display 0948           __Umul8_16@multiplicand 0072                  _power_on_screen 164D  
                       stringtab 1185                    ___fladd@signs 0072             ?_read_digital_keypad 0070  
               power_on_screen@i 0028                      _water_level 00B8                     ___fladd@aexp 0073  
                   ___fladd@bexp 0074             __Umul8_16@multiplier 0024                __Umul8_16@product 0020  
